


ARM Macro Assembler    Page 1 


    1 00000000         #line   1                "..\\..\\..\\source\\hic_hal\\f
reescale\\kl26z\\armcc\\startup_MKL26Z4.s"
    1 00000000         ;
    2 00000000         
    3 00000000         
    4 00000000         
    5 00000000         
    6 00000000         
    7 00000000         
    8 00000000         
    9 00000000         
   10 00000000         
   11 00000000         
   12 00000000         
   13 00000000         
   14 00000000         
   15 00000000         
   16 00000000         
   17 00000000         
   18 00000000         
   19 00000000         
   20 00000000         
   21 00000000         
   22 00000000         ; <h> Stack Configuration
   23 00000000         ;   <o> Stack Size (in Bytes) <0x0-0xFFFFFFFF:8>
   24 00000000         ; </h>
   25 00000000         
   26 00000000 00000100 
                       Stack_Size
                               EQU              0x00000100
   27 00000000         
   28 00000000                 AREA             STACK, NOINIT, READWRITE, ALIGN
=3
   29 00000000         Stack_Mem
                               SPACE            Stack_Size
   30 00000100         __initial_sp
   31 00000100         
   32 00000100         ; <h> Heap Configuration
   33 00000100         ;   <o>  Heap Size (in Bytes) <0x0-0xFFFFFFFF:8>
   34 00000100         ; </h>
   35 00000100         
   36 00000100 00000100 
                       Heap_Size
                               EQU              0x00000100
   37 00000100         
   38 00000100                 AREA             HEAP, NOINIT, READWRITE, ALIGN=
3
   39 00000000         __heap_base
   40 00000000         Heap_Mem
                               SPACE            Heap_Size
   41 00000100         __heap_limit
   42 00000100         
   43 00000100                 PRESERVE8
   44 00000100                 THUMB
   45 00000100         
   46 00000100         
   47 00000100         ; Vector Table Mapped to Address 0 at Reset
   48 00000100         
   49 00000100                 AREA             RESET, DATA, READONLY



ARM Macro Assembler    Page 2 


   50 00000000                 EXPORT           __Vectors
   51 00000000                 EXPORT           __Vectors_End
   52 00000000                 EXPORT           __Vectors_Size
   53 00000000         
   54 00000000 00000000 
                       __Vectors
                               DCD              __initial_sp ; Top of Stack
   55 00000004 00000000        DCD              Reset_Handler ; Reset Handler
   56 00000008 00000000        DCD              NMI_Handler ; NMI Handler
   57 0000000C 00000000        DCD              HardFault_Handler ; Hard Fault 
                                                            Handler
   58 00000010 00000000        DCD              0           ; Reserved
   59 00000014 00000000        DCD              0           ; Reserved
   60 00000018 00000000        DCD              0           ; Reserved
   61 0000001C 00000000        DCD              0           ; Reserved
   62 00000020 9B939E8F        DCD              0x9B939E8F  ; Build type - BL/I
                                                            F
   63 00000024 97969901        DCD              0x97969901  ; Compatibility
   64 00000028 000000FB        DCD              251         ; Version
   65 0000002C 00000000        DCD              SVC_Handler ; SVCall Handler
   66 00000030 00000000        DCD              0           ; Reserved
   67 00000034 00000000        DCD              0           ; Reserved
   68 00000038 00000000        DCD              PendSV_Handler ; PendSV Handler
                                                            
   69 0000003C 00000000        DCD              SysTick_Handler 
                                                            ; SysTick Handler
   70 00000040         
   71 00000040         ; External Interrupts
   72 00000040 00000000        DCD              DMA0_IRQHandler ; DMA channel 0
                                                             transfer complete 
                                                            interrupt
   73 00000044 00000000        DCD              DMA1_IRQHandler ; DMA channel 1
                                                             transfer complete 
                                                            interrupt
   74 00000048 00000000        DCD              DMA2_IRQHandler ; DMA channel 2
                                                             transfer complete 
                                                            interrupt
   75 0000004C 00000000        DCD              DMA3_IRQHandler ; DMA channel 3
                                                             transfer complete 
                                                            interrupt
   76 00000050 00000000        DCD              Reserved20_IRQHandler ; Reserve
                                                            d interrupt 20
   77 00000054 00000000        DCD              FTFA_IRQHandler 
                                                            ; FTFA interrupt
   78 00000058 00000000        DCD              LVD_LVW_IRQHandler ; Low Voltag
                                                            e Detect, Low Volta
                                                            ge Warning
   79 0000005C 00000000        DCD              LLW_IRQHandler ; Low Leakage Wa
                                                            keup
   80 00000060 00000000        DCD              I2C0_IRQHandler 
                                                            ; I2C0 interrupt
   81 00000064 00000000        DCD              I2C1_IRQHandler 
                                                            ; I2C0 interrupt 25
                                                            
   82 00000068 00000000        DCD              SPI0_IRQHandler 
                                                            ; SPI0 interrupt
   83 0000006C 00000000        DCD              SPI1_IRQHandler 
                                                            ; SPI1 interrupt
   84 00000070 00000000        DCD              UART0_IRQHandler ; UART0 status



ARM Macro Assembler    Page 3 


                                                            /error interrupt
   85 00000074 00000000        DCD              UART1_IRQHandler ; UART1 status
                                                            /error interrupt
   86 00000078 00000000        DCD              UART2_IRQHandler ; UART2 status
                                                            /error interrupt
   87 0000007C 00000000        DCD              ADC0_IRQHandler 
                                                            ; ADC0 interrupt
   88 00000080 00000000        DCD              CMP0_IRQHandler 
                                                            ; CMP0 interrupt
   89 00000084 00000000        DCD              TPM0_IRQHandler ; TPM0 fault, o
                                                            verflow and channel
                                                            s interrupt
   90 00000088 00000000        DCD              TPM1_IRQHandler ; TPM1 fault, o
                                                            verflow and channel
                                                            s interrupt
   91 0000008C 00000000        DCD              TPM2_IRQHandler ; TPM2 fault, o
                                                            verflow and channel
                                                            s interrupt
   92 00000090 00000000        DCD              RTC_IRQHandler ; RTC interrupt
   93 00000094 00000000        DCD              RTC_Seconds_IRQHandler ; RTC se
                                                            conds interrupt
   94 00000098 00000000        DCD              PIT_IRQHandler ; PIT timer inte
                                                            rrupt
   95 0000009C 00000000        DCD              Reserved39_IRQHandler ; Reserve
                                                            d interrupt 39
   96 000000A0 00000000        DCD              USB0_IRQHandler 
                                                            ; USB0 interrupt
   97 000000A4 00000000        DCD              DAC0_IRQHandler ; DAC interrupt
                                                            
   98 000000A8 00000000        DCD              TSI0_IRQHandler 
                                                            ; TSI0 interrupt
   99 000000AC 00000000        DCD              MCG_IRQHandler ; MCG interrupt
  100 000000B0 00000000        DCD              LPTimer_IRQHandler 
                                                            ; LPTimer interrupt
                                                            
  101 000000B4 00000000        DCD              Reserved45_IRQHandler ; Reserve
                                                            d interrupt 45
  102 000000B8 00000000        DCD              PORTA_IRQHandler 
                                                            ; Port A interrupt
  103 000000BC 00000000        DCD              PORTD_IRQHandler 
                                                            ; Port D interrupt
  104 000000C0         __Vectors_End
  105 000000C0         
  106 000000C0 000000C0 
                       __Vectors_Size
                               EQU              __Vectors_End - __Vectors
  107 000000C0         
  108 000000C0         ; <h> Flash Configuration
  109 000000C0         ;   <i> 16-byte flash configuration field that stores de
                       fault protection settings (loaded on reset)
  110 000000C0         ;   <i> and security information that allows the MCU to 
                       restrict acces to the FTFL module.
  111 000000C0         ;   <h> Backdoor Comparison Key
  112 000000C0         ;     <o0>  Backdoor Key 0  <0x0-0xFF:2>
  113 000000C0         ;     <o1>  Backdoor Key 1  <0x0-0xFF:2>
  114 000000C0         ;     <o2>  Backdoor Key 2  <0x0-0xFF:2>
  115 000000C0         ;     <o3>  Backdoor Key 3  <0x0-0xFF:2>
  116 000000C0         ;     <o4>  Backdoor Key 4  <0x0-0xFF:2>
  117 000000C0         ;     <o5>  Backdoor Key 5  <0x0-0xFF:2>



ARM Macro Assembler    Page 4 


  118 000000C0         ;     <o6>  Backdoor Key 6  <0x0-0xFF:2>
  119 000000C0         ;     <o7>  Backdoor Key 7  <0x0-0xFF:2>
  120 000000C0 000000FF 
                       BackDoorK0
                               EQU              0xFF
  121 000000C0 000000FF 
                       BackDoorK1
                               EQU              0xFF
  122 000000C0 000000FF 
                       BackDoorK2
                               EQU              0xFF
  123 000000C0 000000FF 
                       BackDoorK3
                               EQU              0xFF
  124 000000C0 000000FF 
                       BackDoorK4
                               EQU              0xFF
  125 000000C0 000000FF 
                       BackDoorK5
                               EQU              0xFF
  126 000000C0 000000FF 
                       BackDoorK6
                               EQU              0xFF
  127 000000C0 000000FF 
                       BackDoorK7
                               EQU              0xFF
  128 000000C0         ;   </h>
  129 000000C0         ;   <h> Program flash protection bytes (FPROT)
  130 000000C0         ;     <i> Each program flash region can be protected fro
                       m program and erase operation by setting the associated 
                       PROT bit.
  131 000000C0         ;     <i> Each bit protects a 1/32 region of the program
                        flash memory.
  132 000000C0         ;     <h> FPROT0
  133 000000C0         ;       <i> Program flash protection bytes
  134 000000C0         ;       <i> 1/32 - 8/32 region
  135 000000C0         ;       <o.0>   FPROT0.0
  136 000000C0         ;       <o.1>   FPROT0.1
  137 000000C0         ;       <o.2>   FPROT0.2
  138 000000C0         ;       <o.3>   FPROT0.3
  139 000000C0         ;       <o.4>   FPROT0.4
  140 000000C0         ;       <o.5>   FPROT0.5
  141 000000C0         ;       <o.6>   FPROT0.6
  142 000000C0         ;       <o.7>   FPROT0.7
  143 000000C0 00000000 
                       nFPROT0 EQU              0x00
  144 000000C0 000000FF 
                       FPROT0  EQU              nFPROT0:EOR:0xFF
  145 000000C0         ;     </h>
  146 000000C0         ;     <h> FPROT1
  147 000000C0         ;       <i> Program Flash Region Protect Register 1
  148 000000C0         ;       <i> 9/32 - 16/32 region
  149 000000C0         ;       <o.0>   FPROT1.0
  150 000000C0         ;       <o.1>   FPROT1.1
  151 000000C0         ;       <o.2>   FPROT1.2
  152 000000C0         ;       <o.3>   FPROT1.3
  153 000000C0         ;       <o.4>   FPROT1.4
  154 000000C0         ;       <o.5>   FPROT1.5
  155 000000C0         ;       <o.6>   FPROT1.6



ARM Macro Assembler    Page 5 


  156 000000C0         ;       <o.7>   FPROT1.7
  157 000000C0 00000000 
                       nFPROT1 EQU              0x00
  158 000000C0 000000FF 
                       FPROT1  EQU              nFPROT1:EOR:0xFF
  159 000000C0         ;     </h>
  160 000000C0         ;     <h> FPROT2
  161 000000C0         ;       <i> Program Flash Region Protect Register 2
  162 000000C0         ;       <i> 17/32 - 24/32 region
  163 000000C0         ;       <o.0>   FPROT2.0
  164 000000C0         ;       <o.1>   FPROT2.1
  165 000000C0         ;       <o.2>   FPROT2.2
  166 000000C0         ;       <o.3>   FPROT2.3
  167 000000C0         ;       <o.4>   FPROT2.4
  168 000000C0         ;       <o.5>   FPROT2.5
  169 000000C0         ;       <o.6>   FPROT2.6
  170 000000C0         ;       <o.7>   FPROT2.7
  171 000000C0 00000000 
                       nFPROT2 EQU              0x00
  172 000000C0 000000FF 
                       FPROT2  EQU              nFPROT2:EOR:0xFF
  173 000000C0         ;     </h>
  174 000000C0         ;     <h> FPROT3
  175 000000C0         ;       <i> Program Flash Region Protect Register 3
  176 000000C0         ;       <i> 25/32 - 32/32 region
  177 000000C0         ;       <o.0>   FPROT3.0
  178 000000C0         ;       <o.1>   FPROT3.1
  179 000000C0         ;       <o.2>   FPROT3.2
  180 000000C0         ;       <o.3>   FPROT3.3
  181 000000C0         ;       <o.4>   FPROT3.4
  182 000000C0         ;       <o.5>   FPROT3.5
  183 000000C0         ;       <o.6>   FPROT3.6
  184 000000C0         ;       <o.7>   FPROT3.7
  185 000000C0 00000000 
                       nFPROT3 EQU              0x00
  186 000000C0 000000FF 
                       FPROT3  EQU              nFPROT3:EOR:0xFF
  187 000000C0         ;     </h>
  188 000000C0         ;   </h>
  189 000000C0         ;   </h>
  190 000000C0         ;   <h> Flash nonvolatile option byte (FOPT)
  191 000000C0         ;     <i> Allows the user to customize the operation of 
                       the MCU at boot time.
  192 000000C0         ;     <o.0>  LPBOOT0
  193 000000C0         ;       <0=> Core and system clock divider (OUTDIV1) is 
                       0x7 (divide by 8) or 0x3 (divide by 4)
  194 000000C0         ;       <1=> Core and system clock divider (OUTDIV1) is 
                       0x1 (divide by 2) or 0x0 (divide by 1)
  195 000000C0         ;     <o.4>  LPBOOT1
  196 000000C0         ;       <0=> Core and system clock divider (OUTDIV1) is 
                       0x7 (divide by 8) or 0x1 (divide by 2)
  197 000000C0         ;       <1=> Core and system clock divider (OUTDIV1) is 
                       0x3 (divide by 4) or 0x0 (divide by 1)
  198 000000C0         ;     <o.2>  NMI_DIS
  199 000000C0         ;       <0=> NMI interrupts are always blocked
  200 000000C0         ;       <1=> NMI pin/interrupts reset default to enabled
                       
  201 000000C0         ;     <o.3>  RESET_PIN_CFG
  202 000000C0         ;       <0=> RESET pin is disabled following a POR and c



ARM Macro Assembler    Page 6 


                       annot be enabled as RESET function
  203 000000C0         ;       <1=> RESET pin is dedicated
  204 000000C0         ;     <o.3>  FAST_INIT
  205 000000C0         ;       <0=> Slower initialization
  206 000000C0         ;       <1=> Fast Initialization
  207 000000C0 000000FF 
                       FOPT    EQU              0xFF
  208 000000C0         ;   </h>
  209 000000C0         ;   <h> Flash security byte (FSEC)
  210 000000C0         ;     <i> WARNING: If SEC field is configured as "MCU se
                       curity status is secure" and MEEN field is configured as
                        "Mass erase is disabled",
  211 000000C0         ;     <i> MCU's security status cannot be set back to un
                       secure state since Mass erase via the debugger is blocke
                       d !!!
  212 000000C0         ;     <o.0..1> SEC
  213 000000C0         ;       <2=> MCU security status is unsecure
  214 000000C0         ;       <3=> MCU security status is secure
  215 000000C0         ;         <i> Flash Security
  216 000000C0         ;         <i> This bits define the security state of the
                        MCU.
  217 000000C0         ;     <o.2..3> FSLACC
  218 000000C0         ;       <2=> Freescale factory access denied
  219 000000C0         ;       <3=> Freescale factory access granted
  220 000000C0         ;         <i> Freescale Failure Analysis Access Code
  221 000000C0         ;         <i> This bits define the security state of the
                        MCU.
  222 000000C0         ;     <o.4..5> MEEN
  223 000000C0         ;       <2=> Mass erase is disabled
  224 000000C0         ;       <3=> Mass erase is enabled
  225 000000C0         ;         <i> Mass Erase Enable Bits
  226 000000C0         ;         <i> Enables and disables mass erase capability
                        of the FTFL module
  227 000000C0         ;     <o.6..7> KEYEN
  228 000000C0         ;       <2=> Backdoor key access enabled
  229 000000C0         ;       <3=> Backdoor key access disabled
  230 000000C0         ;         <i> Backdoor key Security Enable
  231 000000C0         ;         <i> These bits enable and disable backdoor key
                        access to the FTFL module.
  232 000000C0 000000FE 
                       FSEC    EQU              0xFE
  233 000000C0         ;   </h>
  234 000000C0         
  235 000000C0         
  236 000000C0                 AREA             |.ARM.__at_0x8400|, CODE, READO
NLY
  237 00000000         
  238 00000000         
  239 00000000         
  240 00000000         
  241 00000000 FF FF FF 
              FF               DCB              BackDoorK0, BackDoorK1, BackDoo
rK2, BackDoorK3
  242 00000004 FF FF FF 
              FF               DCB              BackDoorK4, BackDoorK5, BackDoo
rK6, BackDoorK7
  243 00000008 FF FF FF 
              FF               DCB              FPROT0,     FPROT1,     FPROT2,
     FPROT3



ARM Macro Assembler    Page 7 


  244 0000000C FE FF FF 
              FF               DCB              FSEC,       FOPT,       0xFF,  
     0xFF
  245 00000010         
  246 00000010                 AREA             |.text|, CODE, READONLY
  247 00000000         
  248 00000000         
  249 00000000         ; Reset Handler
  250 00000000         
  251 00000000         Reset_Handler
                               PROC
  252 00000000                 EXPORT           Reset_Handler             [WEAK
]
  253 00000000                 IMPORT           SystemInit
  254 00000000                 IMPORT           __main
  255 00000000 4807            LDR              R0, =SystemInit
  256 00000002 4780            BLX              R0
  257 00000004 4807            LDR              R0, =__main
  258 00000006 4700            BX               R0
  259 00000008                 ENDP
  260 00000008         
  261 00000008         
  262 00000008         ; Dummy Exception Handlers (infinite loops which can be 
                       modified)
  263 00000008         
  264 00000008         NMI_Handler
                               PROC
  265 00000008                 EXPORT           NMI_Handler               [WEAK
]
  266 00000008 E7FE            B                .
  267 0000000A                 ENDP
  268 0000000A         HardFault_Handler
                               PROC
  269 0000000A         
  270 0000000A                 EXPORT           HardFault_Handler         [WEAK
]
  271 0000000A E7FE            B                .
  272 0000000C                 ENDP
  273 0000000C         SVC_Handler
                               PROC
  274 0000000C                 EXPORT           SVC_Handler               [WEAK
]
  275 0000000C E7FE            B                .
  276 0000000E                 ENDP
  277 0000000E         PendSV_Handler
                               PROC
  278 0000000E                 EXPORT           PendSV_Handler            [WEAK
]
  279 0000000E E7FE            B                .
  280 00000010                 ENDP
  281 00000010         SysTick_Handler
                               PROC
  282 00000010                 EXPORT           SysTick_Handler           [WEAK
]
  283 00000010 E7FE            B                .
  284 00000012                 ENDP
  285 00000012         
  286 00000012         Default_Handler
                               PROC



ARM Macro Assembler    Page 8 


  287 00000012                 EXPORT           DMA0_IRQHandler           [WEAK
]
  288 00000012                 EXPORT           DMA1_IRQHandler           [WEAK
]
  289 00000012                 EXPORT           DMA2_IRQHandler           [WEAK
]
  290 00000012                 EXPORT           DMA3_IRQHandler           [WEAK
]
  291 00000012                 EXPORT           Reserved20_IRQHandler     [WEAK
]
  292 00000012                 EXPORT           FTFA_IRQHandler           [WEAK
]
  293 00000012                 EXPORT           LVD_LVW_IRQHandler        [WEAK
]
  294 00000012                 EXPORT           LLW_IRQHandler            [WEAK
]
  295 00000012                 EXPORT           I2C0_IRQHandler           [WEAK
]
  296 00000012                 EXPORT           I2C1_IRQHandler           [WEAK
]
  297 00000012                 EXPORT           SPI0_IRQHandler           [WEAK
]
  298 00000012                 EXPORT           SPI1_IRQHandler           [WEAK
]
  299 00000012                 EXPORT           UART0_IRQHandler          [WEAK
]
  300 00000012                 EXPORT           UART1_IRQHandler          [WEAK
]
  301 00000012                 EXPORT           UART2_IRQHandler          [WEAK
]
  302 00000012                 EXPORT           ADC0_IRQHandler           [WEAK
]
  303 00000012                 EXPORT           CMP0_IRQHandler           [WEAK
]
  304 00000012                 EXPORT           TPM0_IRQHandler           [WEAK
]
  305 00000012                 EXPORT           TPM1_IRQHandler           [WEAK
]
  306 00000012                 EXPORT           TPM2_IRQHandler           [WEAK
]
  307 00000012                 EXPORT           RTC_IRQHandler            [WEAK
]
  308 00000012                 EXPORT           RTC_Seconds_IRQHandler    [WEAK
]
  309 00000012                 EXPORT           PIT_IRQHandler            [WEAK
]
  310 00000012                 EXPORT           Reserved39_IRQHandler     [WEAK
]
  311 00000012                 EXPORT           USB0_IRQHandler           [WEAK
]
  312 00000012                 EXPORT           DAC0_IRQHandler           [WEAK
]
  313 00000012                 EXPORT           TSI0_IRQHandler           [WEAK
]
  314 00000012                 EXPORT           MCG_IRQHandler            [WEAK
]
  315 00000012                 EXPORT           LPTimer_IRQHandler        [WEAK
]
  316 00000012                 EXPORT           Reserved45_IRQHandler     [WEAK



ARM Macro Assembler    Page 9 


]
  317 00000012                 EXPORT           PORTA_IRQHandler          [WEAK
]
  318 00000012                 EXPORT           PORTD_IRQHandler          [WEAK
]
  319 00000012                 EXPORT           DefaultISR                [WEAK
]
  320 00000012         
  321 00000012         DMA0_IRQHandler
  322 00000012         DMA1_IRQHandler
  323 00000012         DMA2_IRQHandler
  324 00000012         DMA3_IRQHandler
  325 00000012         Reserved20_IRQHandler
  326 00000012         FTFA_IRQHandler
  327 00000012         LVD_LVW_IRQHandler
  328 00000012         LLW_IRQHandler
  329 00000012         I2C0_IRQHandler
  330 00000012         I2C1_IRQHandler
  331 00000012         SPI0_IRQHandler
  332 00000012         SPI1_IRQHandler
  333 00000012         UART0_IRQHandler
  334 00000012         UART1_IRQHandler
  335 00000012         UART2_IRQHandler
  336 00000012         ADC0_IRQHandler
  337 00000012         CMP0_IRQHandler
  338 00000012         TPM0_IRQHandler
  339 00000012         TPM1_IRQHandler
  340 00000012         TPM2_IRQHandler
  341 00000012         RTC_IRQHandler
  342 00000012         RTC_Seconds_IRQHandler
  343 00000012         PIT_IRQHandler
  344 00000012         Reserved39_IRQHandler
  345 00000012         USB0_IRQHandler
  346 00000012         DAC0_IRQHandler
  347 00000012         TSI0_IRQHandler
  348 00000012         MCG_IRQHandler
  349 00000012         LPTimer_IRQHandler
  350 00000012         Reserved45_IRQHandler
  351 00000012         PORTA_IRQHandler
  352 00000012         PORTD_IRQHandler
  353 00000012         DefaultISR
  354 00000012         
  355 00000012 E7FE            B                .
  356 00000014                 ENDP
  357 00000014                 ALIGN
  358 00000014         ; User Initial Stack & Heap
  359 00000014                 IF               :DEF:__MICROLIB
  366 00000014         
  367 00000014                 IMPORT           __use_two_region_memory
  368 00000014                 EXPORT           __user_initial_stackheap
  369 00000014         __user_initial_stackheap
  370 00000014 4804            LDR              R0, =  Heap_Mem
  371 00000016 4905            LDR              R1, = (Stack_Mem + Stack_Size)
  372 00000018 4A05            LDR              R2, = (Heap_Mem  + Heap_Size)
  373 0000001A 4B06            LDR              R3, =  Stack_Mem
  374 0000001C 4770            BX               LR
  375 0000001E 00 00           ALIGN
  376 00000020         
  377 00000020                 ENDIF



ARM Macro Assembler    Page 10 


  378 00000020         
  379 00000020                 END
              00000000 
              00000000 
              00000000 
              00000100 
              00000100 
              00000000 
Command Line: --debug --xref --cpreproc --diag_suppress=9931 --cpu=Cortex-M0+ -
-apcs=interwork --depend=.\build\startup_mkl26z4.d -o.\build\startup_mkl26z4.o 
-I.\RTE\_kl26z_microbit_if -IC:\Users\Szymon\AppData\Local\Arm\Packs\ARM\CMSIS\
5.7.0\CMSIS\Core\Include -IC:\Users\Szymon\AppData\Local\Arm\Packs\NXP\MKL26Z4_
DFP\10.0.3 --predefine="__UVISION_VERSION SETA 530" --predefine="_RTE_ SETA 1" 
--predefine="CPU_MKL26Z128VFM4 SETA 1" --predefine="_RTE_ SETA 1" --cpreproc_op
ts=-DDAPLINK_VERSION=251,-DHID_ENDPOINT,-DMSC_ENDPOINT,-DCDC_ENDPOINT,-DWEBUSB_
INTERFACE,-DWINUSB_INTERFACE,-DDAPLINK_IF,-DDAPLINK_BUILD_KEY=0x9B939E8F,-DINTE
RFACE_KL26Z,-DCPU_MKL26Z128VLH4,-DDAPLINK_HIC_ID=0x97969901,-DFLASH_SSD_CONFIG_
ENABLE_FLEXNVM_SUPPORT=0,-DFLASH_DRIVER_IS_FLASH_RESIDENT=1,-DDAPLINK_NO_ASSERT
_FILENAMES,-DHID_LED_DEF=GPIO_LED_ON,-DCDC_LED_DEF=GPIO_LED_ON,-DMSC_LED_DEF=GP
IO_LED_ON,"-DUSB_PROD_STR=BBC micro:bit CMSIS-DAP" --list=.\build\startup_mkl26
z4.lst ..\..\..\source\hic_hal\freescale\kl26z\armcc\startup_MKL26Z4.s



ARM Macro Assembler    Page 1 Alphabetic symbol ordering
Relocatable symbols

STACK 00000000

Symbol: STACK
   Definitions
      At line 28 in file ..\\..\\..\\source\\hic_hal\\freescale\\kl26z\\armcc\\
startup_MKL26Z4.s
   Uses
      None
Comment: STACK unused
Stack_Mem 00000000

Symbol: Stack_Mem
   Definitions
      At line 29 in file ..\\..\\..\\source\\hic_hal\\freescale\\kl26z\\armcc\\
startup_MKL26Z4.s
   Uses
      At line 371 in file ..\\..\\..\\source\\hic_hal\\freescale\\kl26z\\armcc\
\startup_MKL26Z4.s
      At line 373 in file ..\\..\\..\\source\\hic_hal\\freescale\\kl26z\\armcc\
\startup_MKL26Z4.s

__initial_sp 00000100

Symbol: __initial_sp
   Definitions
      At line 30 in file ..\\..\\..\\source\\hic_hal\\freescale\\kl26z\\armcc\\
startup_MKL26Z4.s
   Uses
      At line 54 in file ..\\..\\..\\source\\hic_hal\\freescale\\kl26z\\armcc\\
startup_MKL26Z4.s
Comment: __initial_sp used once
3 symbols



ARM Macro Assembler    Page 1 Alphabetic symbol ordering
Relocatable symbols

HEAP 00000000

Symbol: HEAP
   Definitions
      At line 38 in file ..\\..\\..\\source\\hic_hal\\freescale\\kl26z\\armcc\\
startup_MKL26Z4.s
   Uses
      None
Comment: HEAP unused
Heap_Mem 00000000

Symbol: Heap_Mem
   Definitions
      At line 40 in file ..\\..\\..\\source\\hic_hal\\freescale\\kl26z\\armcc\\
startup_MKL26Z4.s
   Uses
      At line 370 in file ..\\..\\..\\source\\hic_hal\\freescale\\kl26z\\armcc\
\startup_MKL26Z4.s
      At line 372 in file ..\\..\\..\\source\\hic_hal\\freescale\\kl26z\\armcc\
\startup_MKL26Z4.s

__heap_base 00000000

Symbol: __heap_base
   Definitions
      At line 39 in file ..\\..\\..\\source\\hic_hal\\freescale\\kl26z\\armcc\\
startup_MKL26Z4.s
   Uses
      None
Comment: __heap_base unused
__heap_limit 00000100

Symbol: __heap_limit
   Definitions
      At line 41 in file ..\\..\\..\\source\\hic_hal\\freescale\\kl26z\\armcc\\
startup_MKL26Z4.s
   Uses
      None
Comment: __heap_limit unused
4 symbols



ARM Macro Assembler    Page 1 Alphabetic symbol ordering
Relocatable symbols

RESET 00000000

Symbol: RESET
   Definitions
      At line 49 in file ..\\..\\..\\source\\hic_hal\\freescale\\kl26z\\armcc\\
startup_MKL26Z4.s
   Uses
      None
Comment: RESET unused
__Vectors 00000000

Symbol: __Vectors
   Definitions
      At line 54 in file ..\\..\\..\\source\\hic_hal\\freescale\\kl26z\\armcc\\
startup_MKL26Z4.s
   Uses
      At line 50 in file ..\\..\\..\\source\\hic_hal\\freescale\\kl26z\\armcc\\
startup_MKL26Z4.s
      At line 106 in file ..\\..\\..\\source\\hic_hal\\freescale\\kl26z\\armcc\
\startup_MKL26Z4.s

__Vectors_End 000000C0

Symbol: __Vectors_End
   Definitions
      At line 104 in file ..\\..\\..\\source\\hic_hal\\freescale\\kl26z\\armcc\
\startup_MKL26Z4.s
   Uses
      At line 51 in file ..\\..\\..\\source\\hic_hal\\freescale\\kl26z\\armcc\\
startup_MKL26Z4.s
      At line 106 in file ..\\..\\..\\source\\hic_hal\\freescale\\kl26z\\armcc\
\startup_MKL26Z4.s

3 symbols



ARM Macro Assembler    Page 1 Alphabetic symbol ordering
Relocatable symbols

.ARM.__at_0x8400 00000000

Symbol: .ARM.__at_0x8400
   Definitions
      At line 236 in file ..\\..\\..\\source\\hic_hal\\freescale\\kl26z\\armcc\
\startup_MKL26Z4.s
   Uses
      None
Comment: .ARM.__at_0x8400 unused
1 symbol



ARM Macro Assembler    Page 1 Alphabetic symbol ordering
Relocatable symbols

.text 00000000

Symbol: .text
   Definitions
      At line 246 in file ..\\..\\..\\source\\hic_hal\\freescale\\kl26z\\armcc\
\startup_MKL26Z4.s
   Uses
      None
Comment: .text unused
ADC0_IRQHandler 00000012

Symbol: ADC0_IRQHandler
   Definitions
      At line 336 in file ..\\..\\..\\source\\hic_hal\\freescale\\kl26z\\armcc\
\startup_MKL26Z4.s
   Uses
      At line 87 in file ..\\..\\..\\source\\hic_hal\\freescale\\kl26z\\armcc\\
startup_MKL26Z4.s
      At line 302 in file ..\\..\\..\\source\\hic_hal\\freescale\\kl26z\\armcc\
\startup_MKL26Z4.s

CMP0_IRQHandler 00000012

Symbol: CMP0_IRQHandler
   Definitions
      At line 337 in file ..\\..\\..\\source\\hic_hal\\freescale\\kl26z\\armcc\
\startup_MKL26Z4.s
   Uses
      At line 88 in file ..\\..\\..\\source\\hic_hal\\freescale\\kl26z\\armcc\\
startup_MKL26Z4.s
      At line 303 in file ..\\..\\..\\source\\hic_hal\\freescale\\kl26z\\armcc\
\startup_MKL26Z4.s

DAC0_IRQHandler 00000012

Symbol: DAC0_IRQHandler
   Definitions
      At line 346 in file ..\\..\\..\\source\\hic_hal\\freescale\\kl26z\\armcc\
\startup_MKL26Z4.s
   Uses
      At line 97 in file ..\\..\\..\\source\\hic_hal\\freescale\\kl26z\\armcc\\
startup_MKL26Z4.s
      At line 312 in file ..\\..\\..\\source\\hic_hal\\freescale\\kl26z\\armcc\
\startup_MKL26Z4.s

DMA0_IRQHandler 00000012

Symbol: DMA0_IRQHandler
   Definitions
      At line 321 in file ..\\..\\..\\source\\hic_hal\\freescale\\kl26z\\armcc\
\startup_MKL26Z4.s
   Uses
      At line 72 in file ..\\..\\..\\source\\hic_hal\\freescale\\kl26z\\armcc\\
startup_MKL26Z4.s
      At line 287 in file ..\\..\\..\\source\\hic_hal\\freescale\\kl26z\\armcc\
\startup_MKL26Z4.s

DMA1_IRQHandler 00000012




ARM Macro Assembler    Page 2 Alphabetic symbol ordering
Relocatable symbols

Symbol: DMA1_IRQHandler
   Definitions
      At line 322 in file ..\\..\\..\\source\\hic_hal\\freescale\\kl26z\\armcc\
\startup_MKL26Z4.s
   Uses
      At line 73 in file ..\\..\\..\\source\\hic_hal\\freescale\\kl26z\\armcc\\
startup_MKL26Z4.s
      At line 288 in file ..\\..\\..\\source\\hic_hal\\freescale\\kl26z\\armcc\
\startup_MKL26Z4.s

DMA2_IRQHandler 00000012

Symbol: DMA2_IRQHandler
   Definitions
      At line 323 in file ..\\..\\..\\source\\hic_hal\\freescale\\kl26z\\armcc\
\startup_MKL26Z4.s
   Uses
      At line 74 in file ..\\..\\..\\source\\hic_hal\\freescale\\kl26z\\armcc\\
startup_MKL26Z4.s
      At line 289 in file ..\\..\\..\\source\\hic_hal\\freescale\\kl26z\\armcc\
\startup_MKL26Z4.s

DMA3_IRQHandler 00000012

Symbol: DMA3_IRQHandler
   Definitions
      At line 324 in file ..\\..\\..\\source\\hic_hal\\freescale\\kl26z\\armcc\
\startup_MKL26Z4.s
   Uses
      At line 75 in file ..\\..\\..\\source\\hic_hal\\freescale\\kl26z\\armcc\\
startup_MKL26Z4.s
      At line 290 in file ..\\..\\..\\source\\hic_hal\\freescale\\kl26z\\armcc\
\startup_MKL26Z4.s

DefaultISR 00000012

Symbol: DefaultISR
   Definitions
      At line 353 in file ..\\..\\..\\source\\hic_hal\\freescale\\kl26z\\armcc\
\startup_MKL26Z4.s
   Uses
      At line 319 in file ..\\..\\..\\source\\hic_hal\\freescale\\kl26z\\armcc\
\startup_MKL26Z4.s
Comment: DefaultISR used once
Default_Handler 00000012

Symbol: Default_Handler
   Definitions
      At line 286 in file ..\\..\\..\\source\\hic_hal\\freescale\\kl26z\\armcc\
\startup_MKL26Z4.s
   Uses
      None
Comment: Default_Handler unused
FTFA_IRQHandler 00000012

Symbol: FTFA_IRQHandler
   Definitions
      At line 326 in file ..\\..\\..\\source\\hic_hal\\freescale\\kl26z\\armcc\
\startup_MKL26Z4.s



ARM Macro Assembler    Page 3 Alphabetic symbol ordering
Relocatable symbols

   Uses
      At line 77 in file ..\\..\\..\\source\\hic_hal\\freescale\\kl26z\\armcc\\
startup_MKL26Z4.s
      At line 292 in file ..\\..\\..\\source\\hic_hal\\freescale\\kl26z\\armcc\
\startup_MKL26Z4.s

HardFault_Handler 0000000A

Symbol: HardFault_Handler
   Definitions
      At line 268 in file ..\\..\\..\\source\\hic_hal\\freescale\\kl26z\\armcc\
\startup_MKL26Z4.s
   Uses
      At line 57 in file ..\\..\\..\\source\\hic_hal\\freescale\\kl26z\\armcc\\
startup_MKL26Z4.s
      At line 270 in file ..\\..\\..\\source\\hic_hal\\freescale\\kl26z\\armcc\
\startup_MKL26Z4.s

I2C0_IRQHandler 00000012

Symbol: I2C0_IRQHandler
   Definitions
      At line 329 in file ..\\..\\..\\source\\hic_hal\\freescale\\kl26z\\armcc\
\startup_MKL26Z4.s
   Uses
      At line 80 in file ..\\..\\..\\source\\hic_hal\\freescale\\kl26z\\armcc\\
startup_MKL26Z4.s
      At line 295 in file ..\\..\\..\\source\\hic_hal\\freescale\\kl26z\\armcc\
\startup_MKL26Z4.s

I2C1_IRQHandler 00000012

Symbol: I2C1_IRQHandler
   Definitions
      At line 330 in file ..\\..\\..\\source\\hic_hal\\freescale\\kl26z\\armcc\
\startup_MKL26Z4.s
   Uses
      At line 81 in file ..\\..\\..\\source\\hic_hal\\freescale\\kl26z\\armcc\\
startup_MKL26Z4.s
      At line 296 in file ..\\..\\..\\source\\hic_hal\\freescale\\kl26z\\armcc\
\startup_MKL26Z4.s

LLW_IRQHandler 00000012

Symbol: LLW_IRQHandler
   Definitions
      At line 328 in file ..\\..\\..\\source\\hic_hal\\freescale\\kl26z\\armcc\
\startup_MKL26Z4.s
   Uses
      At line 79 in file ..\\..\\..\\source\\hic_hal\\freescale\\kl26z\\armcc\\
startup_MKL26Z4.s
      At line 294 in file ..\\..\\..\\source\\hic_hal\\freescale\\kl26z\\armcc\
\startup_MKL26Z4.s

LPTimer_IRQHandler 00000012

Symbol: LPTimer_IRQHandler
   Definitions
      At line 349 in file ..\\..\\..\\source\\hic_hal\\freescale\\kl26z\\armcc\



ARM Macro Assembler    Page 4 Alphabetic symbol ordering
Relocatable symbols

\startup_MKL26Z4.s
   Uses
      At line 100 in file ..\\..\\..\\source\\hic_hal\\freescale\\kl26z\\armcc\
\startup_MKL26Z4.s
      At line 315 in file ..\\..\\..\\source\\hic_hal\\freescale\\kl26z\\armcc\
\startup_MKL26Z4.s

LVD_LVW_IRQHandler 00000012

Symbol: LVD_LVW_IRQHandler
   Definitions
      At line 327 in file ..\\..\\..\\source\\hic_hal\\freescale\\kl26z\\armcc\
\startup_MKL26Z4.s
   Uses
      At line 78 in file ..\\..\\..\\source\\hic_hal\\freescale\\kl26z\\armcc\\
startup_MKL26Z4.s
      At line 293 in file ..\\..\\..\\source\\hic_hal\\freescale\\kl26z\\armcc\
\startup_MKL26Z4.s

MCG_IRQHandler 00000012

Symbol: MCG_IRQHandler
   Definitions
      At line 348 in file ..\\..\\..\\source\\hic_hal\\freescale\\kl26z\\armcc\
\startup_MKL26Z4.s
   Uses
      At line 99 in file ..\\..\\..\\source\\hic_hal\\freescale\\kl26z\\armcc\\
startup_MKL26Z4.s
      At line 314 in file ..\\..\\..\\source\\hic_hal\\freescale\\kl26z\\armcc\
\startup_MKL26Z4.s

NMI_Handler 00000008

Symbol: NMI_Handler
   Definitions
      At line 264 in file ..\\..\\..\\source\\hic_hal\\freescale\\kl26z\\armcc\
\startup_MKL26Z4.s
   Uses
      At line 56 in file ..\\..\\..\\source\\hic_hal\\freescale\\kl26z\\armcc\\
startup_MKL26Z4.s
      At line 265 in file ..\\..\\..\\source\\hic_hal\\freescale\\kl26z\\armcc\
\startup_MKL26Z4.s

PIT_IRQHandler 00000012

Symbol: PIT_IRQHandler
   Definitions
      At line 343 in file ..\\..\\..\\source\\hic_hal\\freescale\\kl26z\\armcc\
\startup_MKL26Z4.s
   Uses
      At line 94 in file ..\\..\\..\\source\\hic_hal\\freescale\\kl26z\\armcc\\
startup_MKL26Z4.s
      At line 309 in file ..\\..\\..\\source\\hic_hal\\freescale\\kl26z\\armcc\
\startup_MKL26Z4.s

PORTA_IRQHandler 00000012

Symbol: PORTA_IRQHandler
   Definitions



ARM Macro Assembler    Page 5 Alphabetic symbol ordering
Relocatable symbols

      At line 351 in file ..\\..\\..\\source\\hic_hal\\freescale\\kl26z\\armcc\
\startup_MKL26Z4.s
   Uses
      At line 102 in file ..\\..\\..\\source\\hic_hal\\freescale\\kl26z\\armcc\
\startup_MKL26Z4.s
      At line 317 in file ..\\..\\..\\source\\hic_hal\\freescale\\kl26z\\armcc\
\startup_MKL26Z4.s

PORTD_IRQHandler 00000012

Symbol: PORTD_IRQHandler
   Definitions
      At line 352 in file ..\\..\\..\\source\\hic_hal\\freescale\\kl26z\\armcc\
\startup_MKL26Z4.s
   Uses
      At line 103 in file ..\\..\\..\\source\\hic_hal\\freescale\\kl26z\\armcc\
\startup_MKL26Z4.s
      At line 318 in file ..\\..\\..\\source\\hic_hal\\freescale\\kl26z\\armcc\
\startup_MKL26Z4.s

PendSV_Handler 0000000E

Symbol: PendSV_Handler
   Definitions
      At line 277 in file ..\\..\\..\\source\\hic_hal\\freescale\\kl26z\\armcc\
\startup_MKL26Z4.s
   Uses
      At line 68 in file ..\\..\\..\\source\\hic_hal\\freescale\\kl26z\\armcc\\
startup_MKL26Z4.s
      At line 278 in file ..\\..\\..\\source\\hic_hal\\freescale\\kl26z\\armcc\
\startup_MKL26Z4.s

RTC_IRQHandler 00000012

Symbol: RTC_IRQHandler
   Definitions
      At line 341 in file ..\\..\\..\\source\\hic_hal\\freescale\\kl26z\\armcc\
\startup_MKL26Z4.s
   Uses
      At line 92 in file ..\\..\\..\\source\\hic_hal\\freescale\\kl26z\\armcc\\
startup_MKL26Z4.s
      At line 307 in file ..\\..\\..\\source\\hic_hal\\freescale\\kl26z\\armcc\
\startup_MKL26Z4.s

RTC_Seconds_IRQHandler 00000012

Symbol: RTC_Seconds_IRQHandler
   Definitions
      At line 342 in file ..\\..\\..\\source\\hic_hal\\freescale\\kl26z\\armcc\
\startup_MKL26Z4.s
   Uses
      At line 93 in file ..\\..\\..\\source\\hic_hal\\freescale\\kl26z\\armcc\\
startup_MKL26Z4.s
      At line 308 in file ..\\..\\..\\source\\hic_hal\\freescale\\kl26z\\armcc\
\startup_MKL26Z4.s

Reserved20_IRQHandler 00000012

Symbol: Reserved20_IRQHandler



ARM Macro Assembler    Page 6 Alphabetic symbol ordering
Relocatable symbols

   Definitions
      At line 325 in file ..\\..\\..\\source\\hic_hal\\freescale\\kl26z\\armcc\
\startup_MKL26Z4.s
   Uses
      At line 76 in file ..\\..\\..\\source\\hic_hal\\freescale\\kl26z\\armcc\\
startup_MKL26Z4.s
      At line 291 in file ..\\..\\..\\source\\hic_hal\\freescale\\kl26z\\armcc\
\startup_MKL26Z4.s

Reserved39_IRQHandler 00000012

Symbol: Reserved39_IRQHandler
   Definitions
      At line 344 in file ..\\..\\..\\source\\hic_hal\\freescale\\kl26z\\armcc\
\startup_MKL26Z4.s
   Uses
      At line 95 in file ..\\..\\..\\source\\hic_hal\\freescale\\kl26z\\armcc\\
startup_MKL26Z4.s
      At line 310 in file ..\\..\\..\\source\\hic_hal\\freescale\\kl26z\\armcc\
\startup_MKL26Z4.s

Reserved45_IRQHandler 00000012

Symbol: Reserved45_IRQHandler
   Definitions
      At line 350 in file ..\\..\\..\\source\\hic_hal\\freescale\\kl26z\\armcc\
\startup_MKL26Z4.s
   Uses
      At line 101 in file ..\\..\\..\\source\\hic_hal\\freescale\\kl26z\\armcc\
\startup_MKL26Z4.s
      At line 316 in file ..\\..\\..\\source\\hic_hal\\freescale\\kl26z\\armcc\
\startup_MKL26Z4.s

Reset_Handler 00000000

Symbol: Reset_Handler
   Definitions
      At line 251 in file ..\\..\\..\\source\\hic_hal\\freescale\\kl26z\\armcc\
\startup_MKL26Z4.s
   Uses
      At line 55 in file ..\\..\\..\\source\\hic_hal\\freescale\\kl26z\\armcc\\
startup_MKL26Z4.s
      At line 252 in file ..\\..\\..\\source\\hic_hal\\freescale\\kl26z\\armcc\
\startup_MKL26Z4.s

SPI0_IRQHandler 00000012

Symbol: SPI0_IRQHandler
   Definitions
      At line 331 in file ..\\..\\..\\source\\hic_hal\\freescale\\kl26z\\armcc\
\startup_MKL26Z4.s
   Uses
      At line 82 in file ..\\..\\..\\source\\hic_hal\\freescale\\kl26z\\armcc\\
startup_MKL26Z4.s
      At line 297 in file ..\\..\\..\\source\\hic_hal\\freescale\\kl26z\\armcc\
\startup_MKL26Z4.s

SPI1_IRQHandler 00000012




ARM Macro Assembler    Page 7 Alphabetic symbol ordering
Relocatable symbols

Symbol: SPI1_IRQHandler
   Definitions
      At line 332 in file ..\\..\\..\\source\\hic_hal\\freescale\\kl26z\\armcc\
\startup_MKL26Z4.s
   Uses
      At line 83 in file ..\\..\\..\\source\\hic_hal\\freescale\\kl26z\\armcc\\
startup_MKL26Z4.s
      At line 298 in file ..\\..\\..\\source\\hic_hal\\freescale\\kl26z\\armcc\
\startup_MKL26Z4.s

SVC_Handler 0000000C

Symbol: SVC_Handler
   Definitions
      At line 273 in file ..\\..\\..\\source\\hic_hal\\freescale\\kl26z\\armcc\
\startup_MKL26Z4.s
   Uses
      At line 65 in file ..\\..\\..\\source\\hic_hal\\freescale\\kl26z\\armcc\\
startup_MKL26Z4.s
      At line 274 in file ..\\..\\..\\source\\hic_hal\\freescale\\kl26z\\armcc\
\startup_MKL26Z4.s

SysTick_Handler 00000010

Symbol: SysTick_Handler
   Definitions
      At line 281 in file ..\\..\\..\\source\\hic_hal\\freescale\\kl26z\\armcc\
\startup_MKL26Z4.s
   Uses
      At line 69 in file ..\\..\\..\\source\\hic_hal\\freescale\\kl26z\\armcc\\
startup_MKL26Z4.s
      At line 282 in file ..\\..\\..\\source\\hic_hal\\freescale\\kl26z\\armcc\
\startup_MKL26Z4.s

TPM0_IRQHandler 00000012

Symbol: TPM0_IRQHandler
   Definitions
      At line 338 in file ..\\..\\..\\source\\hic_hal\\freescale\\kl26z\\armcc\
\startup_MKL26Z4.s
   Uses
      At line 89 in file ..\\..\\..\\source\\hic_hal\\freescale\\kl26z\\armcc\\
startup_MKL26Z4.s
      At line 304 in file ..\\..\\..\\source\\hic_hal\\freescale\\kl26z\\armcc\
\startup_MKL26Z4.s

TPM1_IRQHandler 00000012

Symbol: TPM1_IRQHandler
   Definitions
      At line 339 in file ..\\..\\..\\source\\hic_hal\\freescale\\kl26z\\armcc\
\startup_MKL26Z4.s
   Uses
      At line 90 in file ..\\..\\..\\source\\hic_hal\\freescale\\kl26z\\armcc\\
startup_MKL26Z4.s
      At line 305 in file ..\\..\\..\\source\\hic_hal\\freescale\\kl26z\\armcc\
\startup_MKL26Z4.s

TPM2_IRQHandler 00000012



ARM Macro Assembler    Page 8 Alphabetic symbol ordering
Relocatable symbols


Symbol: TPM2_IRQHandler
   Definitions
      At line 340 in file ..\\..\\..\\source\\hic_hal\\freescale\\kl26z\\armcc\
\startup_MKL26Z4.s
   Uses
      At line 91 in file ..\\..\\..\\source\\hic_hal\\freescale\\kl26z\\armcc\\
startup_MKL26Z4.s
      At line 306 in file ..\\..\\..\\source\\hic_hal\\freescale\\kl26z\\armcc\
\startup_MKL26Z4.s

TSI0_IRQHandler 00000012

Symbol: TSI0_IRQHandler
   Definitions
      At line 347 in file ..\\..\\..\\source\\hic_hal\\freescale\\kl26z\\armcc\
\startup_MKL26Z4.s
   Uses
      At line 98 in file ..\\..\\..\\source\\hic_hal\\freescale\\kl26z\\armcc\\
startup_MKL26Z4.s
      At line 313 in file ..\\..\\..\\source\\hic_hal\\freescale\\kl26z\\armcc\
\startup_MKL26Z4.s

UART0_IRQHandler 00000012

Symbol: UART0_IRQHandler
   Definitions
      At line 333 in file ..\\..\\..\\source\\hic_hal\\freescale\\kl26z\\armcc\
\startup_MKL26Z4.s
   Uses
      At line 84 in file ..\\..\\..\\source\\hic_hal\\freescale\\kl26z\\armcc\\
startup_MKL26Z4.s
      At line 299 in file ..\\..\\..\\source\\hic_hal\\freescale\\kl26z\\armcc\
\startup_MKL26Z4.s

UART1_IRQHandler 00000012

Symbol: UART1_IRQHandler
   Definitions
      At line 334 in file ..\\..\\..\\source\\hic_hal\\freescale\\kl26z\\armcc\
\startup_MKL26Z4.s
   Uses
      At line 85 in file ..\\..\\..\\source\\hic_hal\\freescale\\kl26z\\armcc\\
startup_MKL26Z4.s
      At line 300 in file ..\\..\\..\\source\\hic_hal\\freescale\\kl26z\\armcc\
\startup_MKL26Z4.s

UART2_IRQHandler 00000012

Symbol: UART2_IRQHandler
   Definitions
      At line 335 in file ..\\..\\..\\source\\hic_hal\\freescale\\kl26z\\armcc\
\startup_MKL26Z4.s
   Uses
      At line 86 in file ..\\..\\..\\source\\hic_hal\\freescale\\kl26z\\armcc\\
startup_MKL26Z4.s
      At line 301 in file ..\\..\\..\\source\\hic_hal\\freescale\\kl26z\\armcc\
\startup_MKL26Z4.s




ARM Macro Assembler    Page 9 Alphabetic symbol ordering
Relocatable symbols

USB0_IRQHandler 00000012

Symbol: USB0_IRQHandler
   Definitions
      At line 345 in file ..\\..\\..\\source\\hic_hal\\freescale\\kl26z\\armcc\
\startup_MKL26Z4.s
   Uses
      At line 96 in file ..\\..\\..\\source\\hic_hal\\freescale\\kl26z\\armcc\\
startup_MKL26Z4.s
      At line 311 in file ..\\..\\..\\source\\hic_hal\\freescale\\kl26z\\armcc\
\startup_MKL26Z4.s

__user_initial_stackheap 00000014

Symbol: __user_initial_stackheap
   Definitions
      At line 369 in file ..\\..\\..\\source\\hic_hal\\freescale\\kl26z\\armcc\
\startup_MKL26Z4.s
   Uses
      At line 368 in file ..\\..\\..\\source\\hic_hal\\freescale\\kl26z\\armcc\
\startup_MKL26Z4.s
Comment: __user_initial_stackheap used once
42 symbols



ARM Macro Assembler    Page 1 Alphabetic symbol ordering
Absolute symbols

BackDoorK0 000000FF

Symbol: BackDoorK0
   Definitions
      At line 120 in file ..\\..\\..\\source\\hic_hal\\freescale\\kl26z\\armcc\
\startup_MKL26Z4.s
   Uses
      At line 241 in file ..\\..\\..\\source\\hic_hal\\freescale\\kl26z\\armcc\
\startup_MKL26Z4.s
Comment: BackDoorK0 used once
BackDoorK1 000000FF

Symbol: BackDoorK1
   Definitions
      At line 121 in file ..\\..\\..\\source\\hic_hal\\freescale\\kl26z\\armcc\
\startup_MKL26Z4.s
   Uses
      At line 241 in file ..\\..\\..\\source\\hic_hal\\freescale\\kl26z\\armcc\
\startup_MKL26Z4.s
Comment: BackDoorK1 used once
BackDoorK2 000000FF

Symbol: BackDoorK2
   Definitions
      At line 122 in file ..\\..\\..\\source\\hic_hal\\freescale\\kl26z\\armcc\
\startup_MKL26Z4.s
   Uses
      At line 241 in file ..\\..\\..\\source\\hic_hal\\freescale\\kl26z\\armcc\
\startup_MKL26Z4.s
Comment: BackDoorK2 used once
BackDoorK3 000000FF

Symbol: BackDoorK3
   Definitions
      At line 123 in file ..\\..\\..\\source\\hic_hal\\freescale\\kl26z\\armcc\
\startup_MKL26Z4.s
   Uses
      At line 241 in file ..\\..\\..\\source\\hic_hal\\freescale\\kl26z\\armcc\
\startup_MKL26Z4.s
Comment: BackDoorK3 used once
BackDoorK4 000000FF

Symbol: BackDoorK4
   Definitions
      At line 124 in file ..\\..\\..\\source\\hic_hal\\freescale\\kl26z\\armcc\
\startup_MKL26Z4.s
   Uses
      At line 242 in file ..\\..\\..\\source\\hic_hal\\freescale\\kl26z\\armcc\
\startup_MKL26Z4.s
Comment: BackDoorK4 used once
BackDoorK5 000000FF

Symbol: BackDoorK5
   Definitions
      At line 125 in file ..\\..\\..\\source\\hic_hal\\freescale\\kl26z\\armcc\
\startup_MKL26Z4.s
   Uses
      At line 242 in file ..\\..\\..\\source\\hic_hal\\freescale\\kl26z\\armcc\
\startup_MKL26Z4.s



ARM Macro Assembler    Page 2 Alphabetic symbol ordering
Absolute symbols

Comment: BackDoorK5 used once
BackDoorK6 000000FF

Symbol: BackDoorK6
   Definitions
      At line 126 in file ..\\..\\..\\source\\hic_hal\\freescale\\kl26z\\armcc\
\startup_MKL26Z4.s
   Uses
      At line 242 in file ..\\..\\..\\source\\hic_hal\\freescale\\kl26z\\armcc\
\startup_MKL26Z4.s
Comment: BackDoorK6 used once
BackDoorK7 000000FF

Symbol: BackDoorK7
   Definitions
      At line 127 in file ..\\..\\..\\source\\hic_hal\\freescale\\kl26z\\armcc\
\startup_MKL26Z4.s
   Uses
      At line 242 in file ..\\..\\..\\source\\hic_hal\\freescale\\kl26z\\armcc\
\startup_MKL26Z4.s
Comment: BackDoorK7 used once
FOPT 000000FF

Symbol: FOPT
   Definitions
      At line 207 in file ..\\..\\..\\source\\hic_hal\\freescale\\kl26z\\armcc\
\startup_MKL26Z4.s
   Uses
      At line 244 in file ..\\..\\..\\source\\hic_hal\\freescale\\kl26z\\armcc\
\startup_MKL26Z4.s
Comment: FOPT used once
FPROT0 000000FF

Symbol: FPROT0
   Definitions
      At line 144 in file ..\\..\\..\\source\\hic_hal\\freescale\\kl26z\\armcc\
\startup_MKL26Z4.s
   Uses
      At line 243 in file ..\\..\\..\\source\\hic_hal\\freescale\\kl26z\\armcc\
\startup_MKL26Z4.s
Comment: FPROT0 used once
FPROT1 000000FF

Symbol: FPROT1
   Definitions
      At line 158 in file ..\\..\\..\\source\\hic_hal\\freescale\\kl26z\\armcc\
\startup_MKL26Z4.s
   Uses
      At line 243 in file ..\\..\\..\\source\\hic_hal\\freescale\\kl26z\\armcc\
\startup_MKL26Z4.s
Comment: FPROT1 used once
FPROT2 000000FF

Symbol: FPROT2
   Definitions
      At line 172 in file ..\\..\\..\\source\\hic_hal\\freescale\\kl26z\\armcc\
\startup_MKL26Z4.s
   Uses
      At line 243 in file ..\\..\\..\\source\\hic_hal\\freescale\\kl26z\\armcc\



ARM Macro Assembler    Page 3 Alphabetic symbol ordering
Absolute symbols

\startup_MKL26Z4.s
Comment: FPROT2 used once
FPROT3 000000FF

Symbol: FPROT3
   Definitions
      At line 186 in file ..\\..\\..\\source\\hic_hal\\freescale\\kl26z\\armcc\
\startup_MKL26Z4.s
   Uses
      At line 243 in file ..\\..\\..\\source\\hic_hal\\freescale\\kl26z\\armcc\
\startup_MKL26Z4.s
Comment: FPROT3 used once
FSEC 000000FE

Symbol: FSEC
   Definitions
      At line 232 in file ..\\..\\..\\source\\hic_hal\\freescale\\kl26z\\armcc\
\startup_MKL26Z4.s
   Uses
      At line 244 in file ..\\..\\..\\source\\hic_hal\\freescale\\kl26z\\armcc\
\startup_MKL26Z4.s
Comment: FSEC used once
Heap_Size 00000100

Symbol: Heap_Size
   Definitions
      At line 36 in file ..\\..\\..\\source\\hic_hal\\freescale\\kl26z\\armcc\\
startup_MKL26Z4.s
   Uses
      At line 40 in file ..\\..\\..\\source\\hic_hal\\freescale\\kl26z\\armcc\\
startup_MKL26Z4.s
      At line 372 in file ..\\..\\..\\source\\hic_hal\\freescale\\kl26z\\armcc\
\startup_MKL26Z4.s

Stack_Size 00000100

Symbol: Stack_Size
   Definitions
      At line 26 in file ..\\..\\..\\source\\hic_hal\\freescale\\kl26z\\armcc\\
startup_MKL26Z4.s
   Uses
      At line 29 in file ..\\..\\..\\source\\hic_hal\\freescale\\kl26z\\armcc\\
startup_MKL26Z4.s
      At line 371 in file ..\\..\\..\\source\\hic_hal\\freescale\\kl26z\\armcc\
\startup_MKL26Z4.s

__Vectors_Size 000000C0

Symbol: __Vectors_Size
   Definitions
      At line 106 in file ..\\..\\..\\source\\hic_hal\\freescale\\kl26z\\armcc\
\startup_MKL26Z4.s
   Uses
      At line 52 in file ..\\..\\..\\source\\hic_hal\\freescale\\kl26z\\armcc\\
startup_MKL26Z4.s
Comment: __Vectors_Size used once
nFPROT0 00000000

Symbol: nFPROT0



ARM Macro Assembler    Page 4 Alphabetic symbol ordering
Absolute symbols

   Definitions
      At line 143 in file ..\\..\\..\\source\\hic_hal\\freescale\\kl26z\\armcc\
\startup_MKL26Z4.s
   Uses
      At line 144 in file ..\\..\\..\\source\\hic_hal\\freescale\\kl26z\\armcc\
\startup_MKL26Z4.s
Comment: nFPROT0 used once
nFPROT1 00000000

Symbol: nFPROT1
   Definitions
      At line 157 in file ..\\..\\..\\source\\hic_hal\\freescale\\kl26z\\armcc\
\startup_MKL26Z4.s
   Uses
      At line 158 in file ..\\..\\..\\source\\hic_hal\\freescale\\kl26z\\armcc\
\startup_MKL26Z4.s
Comment: nFPROT1 used once
nFPROT2 00000000

Symbol: nFPROT2
   Definitions
      At line 171 in file ..\\..\\..\\source\\hic_hal\\freescale\\kl26z\\armcc\
\startup_MKL26Z4.s
   Uses
      At line 172 in file ..\\..\\..\\source\\hic_hal\\freescale\\kl26z\\armcc\
\startup_MKL26Z4.s
Comment: nFPROT2 used once
nFPROT3 00000000

Symbol: nFPROT3
   Definitions
      At line 185 in file ..\\..\\..\\source\\hic_hal\\freescale\\kl26z\\armcc\
\startup_MKL26Z4.s
   Uses
      At line 186 in file ..\\..\\..\\source\\hic_hal\\freescale\\kl26z\\armcc\
\startup_MKL26Z4.s
Comment: nFPROT3 used once
21 symbols



ARM Macro Assembler    Page 1 Alphabetic symbol ordering
External symbols

SystemInit 00000000

Symbol: SystemInit
   Definitions
      At line 253 in file ..\\..\\..\\source\\hic_hal\\freescale\\kl26z\\armcc\
\startup_MKL26Z4.s
   Uses
      At line 255 in file ..\\..\\..\\source\\hic_hal\\freescale\\kl26z\\armcc\
\startup_MKL26Z4.s
Comment: SystemInit used once
__main 00000000

Symbol: __main
   Definitions
      At line 254 in file ..\\..\\..\\source\\hic_hal\\freescale\\kl26z\\armcc\
\startup_MKL26Z4.s
   Uses
      At line 257 in file ..\\..\\..\\source\\hic_hal\\freescale\\kl26z\\armcc\
\startup_MKL26Z4.s
Comment: __main used once
__use_two_region_memory 00000000

Symbol: __use_two_region_memory
   Definitions
      At line 367 in file ..\\..\\..\\source\\hic_hal\\freescale\\kl26z\\armcc\
\startup_MKL26Z4.s
   Uses
      None
Comment: __use_two_region_memory unused
3 symbols
414 symbols in table
