; generated by Component: ARM Compiler 5.06 update 6 (build 750) Tool: ArmCC [4d3637]
; commandline ArmCC [--c99 --list --split_sections --debug -c --asm --interleave --gnu -o.\build\usbd_msc.o --asm_dir=.\build\ --list_dir=.\build\ --depend=.\build\usbd_msc.d --cpu=Cortex-M0+ --apcs=interwork -Otime --diag_suppress=9931 -I..\..\..\source\usb -I..\..\..\source\daplink\cmsis-dap -I..\..\..\source\daplink\drag-n-drop -I..\..\..\source\daplink\usb2uart -I..\..\..\source\daplink\settings -I..\..\..\source\daplink -I..\..\..\source\daplink\interface -I..\..\..\source\cmsis-core -I..\..\..\source\hic_hal -I..\..\..\source\rtos -I..\..\..\source\hic_hal\freescale\kl26z -I..\..\..\source\hic_hal\freescale\kl26z\MKL26Z4 -I..\..\..\projectfiles\uvision\kl26z_bl -I.\RTE\_kl26z_microbit_if -IC:\Users\Szymon\AppData\Local\Arm\Packs\ARM\CMSIS\5.7.0\CMSIS\Core\Include -IC:\Users\Szymon\AppData\Local\Arm\Packs\NXP\MKL26Z4_DFP\10.0.3 -D__UVISION_VERSION=530 -D_RTE_ -DCPU_MKL26Z128VFM4 -D_RTE_ -DDAPLINK_VERSION=251 -DHID_ENDPOINT -DMSC_ENDPOINT -DCDC_ENDPOINT -DWEBUSB_INTERFACE -DWINUSB_INTERFACE -DDAPLINK_IF -DDAPLINK_BUILD_KEY=0x9B939E8F -DINTERFACE_KL26Z -DCPU_MKL26Z128VLH4 -DDAPLINK_HIC_ID=0x97969901 -DFLASH_SSD_CONFIG_ENABLE_FLEXNVM_SUPPORT=0 -DFLASH_DRIVER_IS_FLASH_RESIDENT=1 -DDAPLINK_NO_ASSERT_FILENAMES -DHID_LED_DEF=GPIO_LED_ON -DCDC_LED_DEF=GPIO_LED_ON -DMSC_LED_DEF=GPIO_LED_ON -D"USB_PROD_STR=BBC micro:bit CMSIS-DAP" --omf_browse=.\build\usbd_msc.crf ..\..\..\source\usb\msc\usbd_msc.c]
                          THUMB

                          AREA ||i.USBD_MSC_ATAPassThrough||, CODE, READONLY, ALIGN=2

                  USBD_MSC_ATAPassThrough PROC
;;;806    
;;;807    void USBD_MSC_ATAPassThrough(void)
000000  b570              PUSH     {r4-r6,lr}
;;;808    {
;;;809        if (!USBD_MSC_DataInFormat()) {
000002  f7fffffe          BL       USBD_MSC_DataInFormat
000006  2800              CMP      r0,#0
000008  d045              BEQ      |L1.150|
;;;810            return;
;;;811        }
;;;812    
;;;813        USBD_MSC_BulkBuf[ 0] = 0x02;
00000a  4823              LDR      r0,|L1.152|
00000c  2202              MOVS     r2,#2
00000e  7002              STRB     r2,[r0,#0]
;;;814        USBD_MSC_BulkBuf[ 1] = 0x02;
000010  7042              STRB     r2,[r0,#1]
;;;815        BulkLen = 2;
000012  4d22              LDR      r5,|L1.156|
;;;816        BulkStage = MSC_BS_DATA_IN_LAST;
000014  2003              MOVS     r0,#3
000016  632a              STR      r2,[r5,#0x30]  ; BulkLen
000018  7028              STRB     r0,[r5,#0]
;;;817    
;;;818        /* Win host requests maximum number of bytes but as all we have is 2 bytes we have
;;;819           to tell host back that it is all we have, that's why we correct residue */
;;;820        if (USBD_MSC_CSW.dDataResidue > BulkLen) {
00001a  4c21              LDR      r4,|L1.160|
00001c  2008              MOVS     r0,#8
00001e  1821              ADDS     r1,r4,r0
000020  780b              LDRB     r3,[r1,#0]  ; USBD_MSC_CSW
000022  4618              MOV      r0,r3
000024  784b              LDRB     r3,[r1,#1]  ; USBD_MSC_CSW
000026  021b              LSLS     r3,r3,#8
000028  4318              ORRS     r0,r0,r3
00002a  788b              LDRB     r3,[r1,#2]  ; USBD_MSC_CSW
00002c  78c9              LDRB     r1,[r1,#3]  ; USBD_MSC_CSW
00002e  041b              LSLS     r3,r3,#16
000030  4318              ORRS     r0,r0,r3
000032  0609              LSLS     r1,r1,#24
000034  4308              ORRS     r0,r0,r1
000036  2802              CMP      r0,#2
000038  d90e              BLS      |L1.88|
;;;821            USBD_MSC_CBW.dDataLength  = BulkLen;
00003a  481a              LDR      r0,|L1.164|
00003c  0a11              LSRS     r1,r2,#8
00003e  7202              STRB     r2,[r0,#8]
000040  7241              STRB     r1,[r0,#9]
000042  0c11              LSRS     r1,r2,#16
000044  7281              STRB     r1,[r0,#0xa]
000046  0e11              LSRS     r1,r2,#24
000048  72c1              STRB     r1,[r0,#0xb]
;;;822            USBD_MSC_CSW.dDataResidue = BulkLen;
00004a  7222              STRB     r2,[r4,#8]
00004c  0a10              LSRS     r0,r2,#8
00004e  7260              STRB     r0,[r4,#9]
000050  0c10              LSRS     r0,r2,#16
000052  72a0              STRB     r0,[r4,#0xa]
000054  0e10              LSRS     r0,r2,#24
000056  72e0              STRB     r0,[r4,#0xb]
                  |L1.88|
;;;823        }
;;;824    
;;;825        USBD_WriteEP(usbd_msc_ep_bulkin | 0x80, USBD_MSC_BulkBuf, BulkLen);
000058  4813              LDR      r0,|L1.168|
00005a  2180              MOVS     r1,#0x80
00005c  7800              LDRB     r0,[r0,#0]  ; usbd_msc_ep_bulkin
00005e  4308              ORRS     r0,r0,r1
000060  490d              LDR      r1,|L1.152|
000062  f7fffffe          BL       USBD_WriteEP
;;;826        USBD_MSC_CSW.dDataResidue -= BulkLen;
000066  2008              MOVS     r0,#8
000068  1821              ADDS     r1,r4,r0
00006a  780a              LDRB     r2,[r1,#0]  ; USBD_MSC_CSW
00006c  4610              MOV      r0,r2
00006e  784a              LDRB     r2,[r1,#1]  ; USBD_MSC_CSW
000070  0212              LSLS     r2,r2,#8
000072  4310              ORRS     r0,r0,r2
000074  788a              LDRB     r2,[r1,#2]  ; USBD_MSC_CSW
000076  78c9              LDRB     r1,[r1,#3]  ; USBD_MSC_CSW
000078  0412              LSLS     r2,r2,#16
00007a  4310              ORRS     r0,r0,r2
00007c  0609              LSLS     r1,r1,#24
00007e  4308              ORRS     r0,r0,r1
000080  6b29              LDR      r1,[r5,#0x30]  ; BulkLen
000082  1a40              SUBS     r0,r0,r1
000084  7220              STRB     r0,[r4,#8]
000086  0a01              LSRS     r1,r0,#8
000088  7261              STRB     r1,[r4,#9]
00008a  0c01              LSRS     r1,r0,#16
00008c  72a1              STRB     r1,[r4,#0xa]
00008e  0e00              LSRS     r0,r0,#24
000090  72e0              STRB     r0,[r4,#0xb]
;;;827        USBD_MSC_CSW.bStatus = CSW_CMD_FAILED;
000092  2001              MOVS     r0,#1
000094  7320              STRB     r0,[r4,#0xc]
                  |L1.150|
;;;828    }
000096  bd70              POP      {r4-r6,pc}
;;;829    
                          ENDP

                  |L1.152|
                          DCD      USBD_MSC_BulkBuf
                  |L1.156|
                          DCD      ||.data||
                  |L1.160|
                          DCD      ||.bss||+0x1f
                  |L1.164|
                          DCD      ||.bss||
                  |L1.168|
                          DCD      usbd_msc_ep_bulkin

                          AREA ||i.USBD_MSC_BulkIn||, CODE, READONLY, ALIGN=2

                  USBD_MSC_BulkIn PROC
;;;1031   
;;;1032   void USBD_MSC_BulkIn(void)
000000  b510              PUSH     {r4,lr}
;;;1033   {
;;;1034       switch (BulkStage) {
000002  4911              LDR      r1,|L2.72|
000004  7808              LDRB     r0,[r1,#0]  ; BulkStage
000006  2802              CMP      r0,#2
000008  d008              BEQ      |L2.28|
00000a  2803              CMP      r0,#3
00000c  d00f              BEQ      |L2.46|
00000e  2804              CMP      r0,#4
000010  d010              BEQ      |L2.52|
000012  2805              CMP      r0,#5
000014  d101              BNE      |L2.26|
;;;1035           case MSC_BS_DATA_IN:
;;;1036               switch (USBD_MSC_CBW.CB[0]) {
;;;1037                   case SCSI_READ10:
;;;1038                   case SCSI_READ12:
;;;1039                       USBD_MSC_MemoryRead();
;;;1040                       break;
;;;1041               }
;;;1042   
;;;1043               break;
;;;1044   
;;;1045           case MSC_BS_DATA_IN_LAST:
;;;1046               USBD_MSC_SetCSW();
;;;1047               break;
;;;1048   
;;;1049           case MSC_BS_DATA_IN_LAST_STALL:
;;;1050               USBD_MSC_SetStallEP(usbd_msc_ep_bulkin | 0x80);
;;;1051               USBD_MSC_SetCSW();
;;;1052               break;
;;;1053   
;;;1054           case MSC_BS_CSW:
;;;1055               BulkStage = MSC_BS_CBW;
000016  2000              MOVS     r0,#0
000018  7008              STRB     r0,[r1,#0]
                  |L2.26|
;;;1056               break;
;;;1057   
;;;1058           default:
;;;1059               break;
;;;1060       }
;;;1061   }
00001a  bd10              POP      {r4,pc}
                  |L2.28|
00001c  480b              LDR      r0,|L2.76|
00001e  7bc0              LDRB     r0,[r0,#0xf]          ;1036  ; USBD_MSC_CBW
000020  2828              CMP      r0,#0x28              ;1036
000022  d001              BEQ      |L2.40|
000024  28a8              CMP      r0,#0xa8              ;1036
000026  d1f8              BNE      |L2.26|
                  |L2.40|
000028  f7fffffe          BL       USBD_MSC_MemoryRead
00002c  bd10              POP      {r4,pc}
                  |L2.46|
00002e  f7fffffe          BL       USBD_MSC_SetCSW
000032  bd10              POP      {r4,pc}
                  |L2.52|
000034  4806              LDR      r0,|L2.80|
000036  2180              MOVS     r1,#0x80              ;1050
000038  7800              LDRB     r0,[r0,#0]            ;1050  ; usbd_msc_ep_bulkin
00003a  4308              ORRS     r0,r0,r1              ;1050
00003c  f7fffffe          BL       USBD_MSC_SetStallEP
000040  f7fffffe          BL       USBD_MSC_SetCSW
000044  bd10              POP      {r4,pc}
;;;1062   
                          ENDP

000046  0000              DCW      0x0000
                  |L2.72|
                          DCD      ||.data||
                  |L2.76|
                          DCD      ||.bss||
                  |L2.80|
                          DCD      usbd_msc_ep_bulkin

                          AREA ||i.USBD_MSC_BulkOut||, CODE, READONLY, ALIGN=2

                  USBD_MSC_BulkOut PROC
;;;1069   
;;;1070   void USBD_MSC_BulkOut(void)
000000  b510              PUSH     {r4,lr}
;;;1071   {
;;;1072       switch (BulkStage) {
000002  4a1c              LDR      r2,|L3.116|
000004  7811              LDRB     r1,[r2,#0]  ; BulkStage
000006  2900              CMP      r1,#0
000008  d00f              BEQ      |L3.42|
00000a  2901              CMP      r1,#1
00000c  d010              BEQ      |L3.48|
;;;1073           case MSC_BS_CBW:
;;;1074               USBD_MSC_GetCBW();
;;;1075               break;
;;;1076   
;;;1077           case MSC_BS_DATA_OUT:
;;;1078               switch (USBD_MSC_CBW.CB[0]) {
;;;1079                   case SCSI_WRITE10:
;;;1080                   case SCSI_WRITE12:
;;;1081                       USBD_MSC_MemoryWrite();
;;;1082                       break;
;;;1083   
;;;1084                   case SCSI_VERIFY10:
;;;1085                       USBD_MSC_MemoryVerify();
;;;1086                       break;
;;;1087               }
;;;1088               break;
;;;1089   
;;;1090           case MSC_BS_CSW:
;;;1091               // Previous transfer must be complete
;;;1092               // before the next transfer begins.
;;;1093               //
;;;1094               // If bulk out is stalled then just
;;;1095               // drop this packet and don't assert.
;;;1096               // This packet was left over from before
;;;1097               // the transfer aborted with a stall.
;;;1098               util_assert(USBD_EndPointHalt & (1 << usbd_msc_ep_bulkout));
00000e  481a              LDR      r0,|L3.120|
000010  2905              CMP      r1,#5                 ;1072
000012  7800              LDRB     r0,[r0,#0]
000014  d01a              BEQ      |L3.76|
000016  2907              CMP      r1,#7                 ;1072
000018  d026              BEQ      |L3.104|
;;;1099               break;
;;;1100   
;;;1101           case MSC_BS_RESET:
;;;1102               // If Bulk-Only Mass Storage Reset command was received on
;;;1103               // Control Endpoint ignore next Bulk OUT transfer if it was not
;;;1104               // a CBW (as it means it was a unprocessed leftover from 
;;;1105               // transfer before reset happened)
;;;1106               BulkStage = MSC_BS_CBW;
;;;1107               if (BulkLen == sizeof(USBD_MSC_CBW)) {
;;;1108                   // If it is a CBW size packet go process it as CBW
;;;1109                   USBD_MSC_GetCBW();
;;;1110               }
;;;1111               break;
;;;1112   
;;;1113           default:
;;;1114               USBD_MSC_SetStallEP(usbd_msc_ep_bulkout);
00001a  f7fffffe          BL       USBD_MSC_SetStallEP
;;;1115               USBD_MSC_CSW.bStatus = CSW_PHASE_ERROR;
00001e  4917              LDR      r1,|L3.124|
000020  2002              MOVS     r0,#2
000022  7308              STRB     r0,[r1,#0xc]
;;;1116               USBD_MSC_SetCSW();
000024  f7fffffe          BL       USBD_MSC_SetCSW
;;;1117               break;
;;;1118       }
;;;1119   }
000028  bd10              POP      {r4,pc}
                  |L3.42|
00002a  f7fffffe          BL       USBD_MSC_GetCBW
                  |L3.46|
00002e  bd10              POP      {r4,pc}
                  |L3.48|
000030  4813              LDR      r0,|L3.128|
000032  7bc0              LDRB     r0,[r0,#0xf]          ;1078  ; USBD_MSC_CBW
000034  282a              CMP      r0,#0x2a              ;1078
000036  d003              BEQ      |L3.64|
000038  282f              CMP      r0,#0x2f              ;1078
00003a  d004              BEQ      |L3.70|
00003c  28aa              CMP      r0,#0xaa              ;1078
00003e  d1f6              BNE      |L3.46|
                  |L3.64|
000040  f7fffffe          BL       USBD_MSC_MemoryWrite
000044  bd10              POP      {r4,pc}
                  |L3.70|
000046  f7fffffe          BL       USBD_MSC_MemoryVerify
00004a  bd10              POP      {r4,pc}
                  |L3.76|
00004c  2101              MOVS     r1,#1                 ;1098
00004e  4081              LSLS     r1,r1,r0              ;1098
000050  480c              LDR      r0,|L3.132|
000052  6800              LDR      r0,[r0,#0]            ;1098  ; USBD_EndPointHalt
000054  4201              TST      r1,r0                 ;1098
000056  d001              BEQ      |L3.92|
000058  2001              MOVS     r0,#1                 ;1098
00005a  e000              B        |L3.94|
                  |L3.92|
00005c  2000              MOVS     r0,#0                 ;1098
                  |L3.94|
00005e  4a0a              LDR      r2,|L3.136|
000060  a10a              ADR      r1,|L3.140|
000062  f7fffffe          BL       _util_assert
000066  bd10              POP      {r4,pc}
                  |L3.104|
000068  2000              MOVS     r0,#0                 ;1106
00006a  7010              STRB     r0,[r2,#0]            ;1106
00006c  6b10              LDR      r0,[r2,#0x30]         ;1107  ; BulkLen
00006e  281f              CMP      r0,#0x1f              ;1107
000070  d0db              BEQ      |L3.42|
000072  bd10              POP      {r4,pc}
;;;1120   
                          ENDP

                  |L3.116|
                          DCD      ||.data||
                  |L3.120|
                          DCD      usbd_msc_ep_bulkout
                  |L3.124|
                          DCD      ||.bss||+0x1f
                  |L3.128|
                          DCD      ||.bss||
                  |L3.132|
                          DCD      USBD_EndPointHalt
                  |L3.136|
                          DCD      0x0000044a
                  |L3.140|
00008c  2e2e5c2e          DCB      "..\\..\\..\\source\\usb\\msc\\usbd_msc.c",0
000090  2e5c2e2e
000094  5c736f75
000098  7263655c
00009c  7573625c
0000a0  6d73635c
0000a4  75736264
0000a8  5f6d7363
0000ac  2e6300  
0000af  00                DCB      0

                          AREA ||i.USBD_MSC_CheckMedia||, CODE, READONLY, ALIGN=2

                  USBD_MSC_CheckMedia PROC
;;;153    
;;;154    BOOL USBD_MSC_CheckMedia(void)
000000  b570              PUSH     {r4-r6,lr}
;;;155    {
;;;156        USBD_MSC_MediaReadyEx = USBD_MSC_MediaReady;
000002  4b1c              LDR      r3,|L4.116|
000004  6858              LDR      r0,[r3,#4]  ; USBD_MSC_MediaReady
;;;157    
;;;158        if (!USBD_MSC_MediaReady) {
000006  60d8              STR      r0,[r3,#0xc]  ; USBD_MSC_MediaReadyEx
000008  2800              CMP      r0,#0
00000a  d001              BEQ      |L4.16|
;;;159            if (USBD_MSC_CBW.dDataLength) {
;;;160                if ((USBD_MSC_CBW.bmFlags & 0x80) != 0) {
;;;161                    USBD_MSC_SetStallEP(usbd_msc_ep_bulkin | 0x80);
;;;162                } else {
;;;163                    if (USBD_MSC_CSW.dDataResidue != BulkLen) {
;;;164                        // Only stall if this isn't the last transfer
;;;165                        USBD_MSC_SetStallEP(usbd_msc_ep_bulkout);
;;;166                    }
;;;167                }
;;;168            }
;;;169    
;;;170            USBD_MSC_CSW.bStatus = CSW_CMD_FAILED;
;;;171            USBD_MSC_SetCSW();
;;;172            return (__FALSE);
;;;173        }
;;;174    
;;;175        return (__TRUE);
00000c  2001              MOVS     r0,#1
;;;176    }
00000e  bd70              POP      {r4-r6,pc}
                  |L4.16|
000010  4d19              LDR      r5,|L4.120|
000012  2008              MOVS     r0,#8                 ;159
000014  1829              ADDS     r1,r5,r0              ;159
000016  780a              LDRB     r2,[r1,#0]            ;159  ; USBD_MSC_CBW
000018  4c18              LDR      r4,|L4.124|
00001a  4610              MOV      r0,r2                 ;159
00001c  784a              LDRB     r2,[r1,#1]            ;159  ; USBD_MSC_CBW
00001e  0212              LSLS     r2,r2,#8              ;159
000020  4310              ORRS     r0,r0,r2              ;159
000022  788a              LDRB     r2,[r1,#2]            ;159  ; USBD_MSC_CBW
000024  78c9              LDRB     r1,[r1,#3]            ;159  ; USBD_MSC_CBW
000026  0412              LSLS     r2,r2,#16             ;159
000028  4310              ORRS     r0,r0,r2              ;159
00002a  0609              LSLS     r1,r1,#24             ;159
00002c  4308              ORRS     r0,r0,r1              ;159
00002e  d01b              BEQ      |L4.104|
000030  7b28              LDRB     r0,[r5,#0xc]          ;160  ; USBD_MSC_CBW
000032  0600              LSLS     r0,r0,#24             ;160
000034  d504              BPL      |L4.64|
000036  4812              LDR      r0,|L4.128|
000038  2180              MOVS     r1,#0x80              ;161
00003a  7800              LDRB     r0,[r0,#0]            ;161  ; usbd_msc_ep_bulkin
00003c  4308              ORRS     r0,r0,r1              ;161
00003e  e011              B        |L4.100|
                  |L4.64|
000040  2008              MOVS     r0,#8                 ;163
000042  1821              ADDS     r1,r4,r0              ;163
000044  780a              LDRB     r2,[r1,#0]            ;163  ; USBD_MSC_CSW
000046  4610              MOV      r0,r2                 ;163
000048  784a              LDRB     r2,[r1,#1]            ;163  ; USBD_MSC_CSW
00004a  0212              LSLS     r2,r2,#8              ;163
00004c  4310              ORRS     r0,r0,r2              ;163
00004e  788a              LDRB     r2,[r1,#2]            ;163  ; USBD_MSC_CSW
000050  78c9              LDRB     r1,[r1,#3]            ;163  ; USBD_MSC_CSW
000052  0412              LSLS     r2,r2,#16             ;163
000054  4310              ORRS     r0,r0,r2              ;163
000056  0609              LSLS     r1,r1,#24             ;163
000058  4308              ORRS     r0,r0,r1              ;163
00005a  6b19              LDR      r1,[r3,#0x30]         ;163  ; BulkLen
00005c  4288              CMP      r0,r1                 ;163
00005e  d003              BEQ      |L4.104|
000060  4808              LDR      r0,|L4.132|
000062  7800              LDRB     r0,[r0,#0]            ;165  ; usbd_msc_ep_bulkout
                  |L4.100|
000064  f7fffffe          BL       USBD_MSC_SetStallEP
                  |L4.104|
000068  2001              MOVS     r0,#1                 ;170
00006a  7320              STRB     r0,[r4,#0xc]          ;170
00006c  f7fffffe          BL       USBD_MSC_SetCSW
000070  2000              MOVS     r0,#0                 ;172
000072  bd70              POP      {r4-r6,pc}
;;;177    
                          ENDP

                  |L4.116|
                          DCD      ||.data||
                  |L4.120|
                          DCD      ||.bss||
                  |L4.124|
                          DCD      ||.bss||+0x1f
                  |L4.128|
                          DCD      usbd_msc_ep_bulkin
                  |L4.132|
                          DCD      usbd_msc_ep_bulkout

                          AREA ||i.USBD_MSC_ClrStallEP||, CODE, READONLY, ALIGN=2

                  USBD_MSC_ClrStallEP PROC
;;;94     
;;;95     void USBD_MSC_ClrStallEP(U32 EPNum)        /* clear EP halt status according stall status */
000000  b510              PUSH     {r4,lr}
;;;96     {
;;;97         U32 n, m;
;;;98         n = USBD_SetupPacket.wIndexL & 0x8F;
000002  4816              LDR      r0,|L5.92|
000004  7901              LDRB     r1,[r0,#4]  ; USBD_SetupPacket
000006  208f              MOVS     r0,#0x8f
000008  4001              ANDS     r1,r1,r0
;;;99         m = (n & 0x80) ? ((1 << 16) << (n & 0x0F)) : (1 << n);
00000a  0608              LSLS     r0,r1,#24
00000c  d505              BPL      |L5.26|
00000e  0708              LSLS     r0,r1,#28
000010  0f00              LSRS     r0,r0,#28
000012  2201              MOVS     r2,#1
000014  0412              LSLS     r2,r2,#16
000016  4082              LSLS     r2,r2,r0
000018  e001              B        |L5.30|
                  |L5.26|
00001a  2201              MOVS     r2,#1
00001c  408a              LSLS     r2,r2,r1
                  |L5.30|
;;;100    
;;;101        if ((n == (usbd_msc_ep_bulkin | 0x80)) && ((USBD_EndPointHalt & m) != 0)) {
00001e  4810              LDR      r0,|L5.96|
000020  2380              MOVS     r3,#0x80
000022  7800              LDRB     r0,[r0,#0]  ; usbd_msc_ep_bulkin
000024  4318              ORRS     r0,r0,r3
000026  4288              CMP      r0,r1
000028  d116              BNE      |L5.88|
00002a  490e              LDR      r1,|L5.100|
00002c  6809              LDR      r1,[r1,#0]  ; USBD_EndPointHalt
00002e  4211              TST      r1,r2
000030  d012              BEQ      |L5.88|
;;;102            /* Compliance Test: rewrite CSW after unstall */
;;;103            if (USBD_MSC_CSW.dSignature == MSC_CSW_Signature) {
000032  4a0d              LDR      r2,|L5.104|
000034  7813              LDRB     r3,[r2,#0]  ; USBD_MSC_CSW
000036  4619              MOV      r1,r3
000038  7853              LDRB     r3,[r2,#1]  ; USBD_MSC_CSW
00003a  021b              LSLS     r3,r3,#8
00003c  4319              ORRS     r1,r1,r3
00003e  7893              LDRB     r3,[r2,#2]  ; USBD_MSC_CSW
000040  78d2              LDRB     r2,[r2,#3]  ; USBD_MSC_CSW
000042  041b              LSLS     r3,r3,#16
000044  4319              ORRS     r1,r1,r3
000046  0612              LSLS     r2,r2,#24
000048  4311              ORRS     r1,r1,r2
00004a  4a08              LDR      r2,|L5.108|
00004c  4291              CMP      r1,r2
00004e  d103              BNE      |L5.88|
;;;104                USBD_WriteEP((usbd_msc_ep_bulkin | 0x80), (U8 *)&USBD_MSC_CSW, sizeof(USBD_MSC_CSW));
000050  220d              MOVS     r2,#0xd
000052  4905              LDR      r1,|L5.104|
000054  f7fffffe          BL       USBD_WriteEP
                  |L5.88|
;;;105            }
;;;106        }
;;;107    }
000058  bd10              POP      {r4,pc}
;;;108    
                          ENDP

00005a  0000              DCW      0x0000
                  |L5.92|
                          DCD      USBD_SetupPacket
                  |L5.96|
                          DCD      usbd_msc_ep_bulkin
                  |L5.100|
                          DCD      USBD_EndPointHalt
                  |L5.104|
                          DCD      ||.bss||+0x1f
                  |L5.108|
                          DCD      0x53425355

                          AREA ||i.USBD_MSC_DataInFormat||, CODE, READONLY, ALIGN=2

                  USBD_MSC_DataInFormat PROC
;;;441    
;;;442    BOOL USBD_MSC_DataInFormat(void)
000000  b570              PUSH     {r4-r6,lr}
;;;443    {
;;;444        if (USBD_MSC_CBW.dDataLength == 0) {
000002  4b10              LDR      r3,|L6.68|
000004  2008              MOVS     r0,#8
000006  1819              ADDS     r1,r3,r0
000008  780a              LDRB     r2,[r1,#0]  ; USBD_MSC_CBW
;;;445            USBD_MSC_CSW.bStatus = CSW_PHASE_ERROR;
00000a  2402              MOVS     r4,#2
00000c  4610              MOV      r0,r2                 ;444
00000e  784a              LDRB     r2,[r1,#1]            ;444  ; USBD_MSC_CBW
000010  4d0d              LDR      r5,|L6.72|
000012  0212              LSLS     r2,r2,#8              ;444
000014  4310              ORRS     r0,r0,r2              ;444
000016  788a              LDRB     r2,[r1,#2]            ;444  ; USBD_MSC_CBW
000018  78c9              LDRB     r1,[r1,#3]            ;444  ; USBD_MSC_CBW
00001a  0412              LSLS     r2,r2,#16             ;444
00001c  4310              ORRS     r0,r0,r2              ;444
00001e  0609              LSLS     r1,r1,#24             ;444
000020  4308              ORRS     r0,r0,r1              ;444
000022  2800              CMP      r0,#0                 ;444
000024  d006              BEQ      |L6.52|
;;;446            USBD_MSC_SetCSW();
;;;447            return (__FALSE);
;;;448        }
;;;449    
;;;450        if ((USBD_MSC_CBW.bmFlags & 0x80) == 0) {
000026  7b18              LDRB     r0,[r3,#0xc]  ; USBD_MSC_CBW
000028  0600              LSLS     r0,r0,#24
00002a  d408              BMI      |L6.62|
;;;451            USBD_MSC_SetStallEP(usbd_msc_ep_bulkout);
00002c  4807              LDR      r0,|L6.76|
00002e  7800              LDRB     r0,[r0,#0]  ; usbd_msc_ep_bulkout
000030  f7fffffe          BL       USBD_MSC_SetStallEP
                  |L6.52|
000034  732c              STRB     r4,[r5,#0xc]          ;445
000036  f7fffffe          BL       USBD_MSC_SetCSW
00003a  2000              MOVS     r0,#0                 ;447
;;;452            USBD_MSC_CSW.bStatus = CSW_PHASE_ERROR;
;;;453            USBD_MSC_SetCSW();
;;;454            return (__FALSE);
;;;455        }
;;;456    
;;;457        return (__TRUE);
;;;458    }
00003c  bd70              POP      {r4-r6,pc}
                  |L6.62|
00003e  2001              MOVS     r0,#1                 ;457
000040  bd70              POP      {r4-r6,pc}
;;;459    
                          ENDP

000042  0000              DCW      0x0000
                  |L6.68|
                          DCD      ||.bss||
                  |L6.72|
                          DCD      ||.bss||+0x1f
                  |L6.76|
                          DCD      usbd_msc_ep_bulkout

                          AREA ||i.USBD_MSC_DataInTransfer||, CODE, READONLY, ALIGN=2

                  USBD_MSC_DataInTransfer PROC
;;;466    
;;;467    void USBD_MSC_DataInTransfer(void)
000000  b510              PUSH     {r4,lr}
;;;468    {
;;;469        if (BulkLen >= USBD_MSC_CBW.dDataLength) {
000002  491b              LDR      r1,|L7.112|
000004  4c1b              LDR      r4,|L7.116|
000006  780a              LDRB     r2,[r1,#0]  ; USBD_MSC_CBW
000008  4610              MOV      r0,r2
00000a  784a              LDRB     r2,[r1,#1]  ; USBD_MSC_CBW
00000c  0212              LSLS     r2,r2,#8
00000e  4310              ORRS     r0,r0,r2
000010  788a              LDRB     r2,[r1,#2]  ; USBD_MSC_CBW
000012  78c9              LDRB     r1,[r1,#3]  ; USBD_MSC_CBW
000014  0412              LSLS     r2,r2,#16
000016  4310              ORRS     r0,r0,r2
000018  0609              LSLS     r1,r1,#24
00001a  4308              ORRS     r0,r0,r1
00001c  6b21              LDR      r1,[r4,#0x30]  ; BulkLen
00001e  4288              CMP      r0,r1
000020  d802              BHI      |L7.40|
;;;470            BulkLen = USBD_MSC_CBW.dDataLength;
;;;471            BulkStage = MSC_BS_DATA_IN_LAST;
000022  6320              STR      r0,[r4,#0x30]  ; BulkLen
000024  2003              MOVS     r0,#3
000026  e000              B        |L7.42|
                  |L7.40|
;;;472        } else {
;;;473            BulkStage = MSC_BS_DATA_IN_LAST_STALL; /* short or zero packet */
000028  2004              MOVS     r0,#4
                  |L7.42|
00002a  7020              STRB     r0,[r4,#0]
;;;474        }
;;;475    
;;;476        USBD_WriteEP(usbd_msc_ep_bulkin | 0x80, USBD_MSC_BulkBuf, BulkLen);
00002c  4812              LDR      r0,|L7.120|
00002e  2180              MOVS     r1,#0x80
000030  7800              LDRB     r0,[r0,#0]  ; usbd_msc_ep_bulkin
000032  6b22              LDR      r2,[r4,#0x30]  ; BulkLen
000034  4308              ORRS     r0,r0,r1
000036  4911              LDR      r1,|L7.124|
000038  f7fffffe          BL       USBD_WriteEP
;;;477        USBD_MSC_CSW.dDataResidue -= BulkLen;
00003c  4910              LDR      r1,|L7.128|
00003e  2008              MOVS     r0,#8
000040  180a              ADDS     r2,r1,r0
000042  7813              LDRB     r3,[r2,#0]  ; USBD_MSC_CSW
000044  4618              MOV      r0,r3
000046  7853              LDRB     r3,[r2,#1]  ; USBD_MSC_CSW
000048  021b              LSLS     r3,r3,#8
00004a  4318              ORRS     r0,r0,r3
00004c  7893              LDRB     r3,[r2,#2]  ; USBD_MSC_CSW
00004e  78d2              LDRB     r2,[r2,#3]  ; USBD_MSC_CSW
000050  041b              LSLS     r3,r3,#16
000052  4318              ORRS     r0,r0,r3
000054  0612              LSLS     r2,r2,#24
000056  4310              ORRS     r0,r0,r2
000058  6b22              LDR      r2,[r4,#0x30]  ; BulkLen
00005a  1a80              SUBS     r0,r0,r2
00005c  7208              STRB     r0,[r1,#8]
00005e  0a02              LSRS     r2,r0,#8
000060  724a              STRB     r2,[r1,#9]
000062  0c02              LSRS     r2,r0,#16
000064  728a              STRB     r2,[r1,#0xa]
000066  0e00              LSRS     r0,r0,#24
000068  72c8              STRB     r0,[r1,#0xb]
;;;478        USBD_MSC_CSW.bStatus = CSW_CMD_PASSED;
00006a  2000              MOVS     r0,#0
00006c  7308              STRB     r0,[r1,#0xc]
;;;479    }
00006e  bd10              POP      {r4,pc}
;;;480    
                          ENDP

                  |L7.112|
                          DCD      ||.bss||+0x8
                  |L7.116|
                          DCD      ||.data||
                  |L7.120|
                          DCD      usbd_msc_ep_bulkin
                  |L7.124|
                          DCD      USBD_MSC_BulkBuf
                  |L7.128|
                          DCD      ||.bss||+0x1f

                          AREA ||i.USBD_MSC_EP_BULKIN_Event||, CODE, READONLY, ALIGN=2

                  USBD_MSC_EP_BULKIN_Event PROC
;;;1136   
;;;1137   void USBD_MSC_EP_BULKIN_Event(U32 event)
000000  b510              PUSH     {r4,lr}
000002  4911              LDR      r1,|L8.72|
000004  7808              LDRB     r0,[r1,#0]  ; BulkStage
000006  2802              CMP      r0,#2
;;;1138   {
000008  d008              BEQ      |L8.28|
00000a  2803              CMP      r0,#3
00000c  d00f              BEQ      |L8.46|
00000e  2804              CMP      r0,#4
000010  d010              BEQ      |L8.52|
000012  2805              CMP      r0,#5
000014  d101              BNE      |L8.26|
000016  2000              MOVS     r0,#0
000018  7008              STRB     r0,[r1,#0]
                  |L8.26|
;;;1139       USBD_MSC_BulkIn();
;;;1140   }
00001a  bd10              POP      {r4,pc}
                  |L8.28|
00001c  480b              LDR      r0,|L8.76|
00001e  7bc0              LDRB     r0,[r0,#0xf]  ; USBD_MSC_CBW
000020  2828              CMP      r0,#0x28
000022  d001              BEQ      |L8.40|
000024  28a8              CMP      r0,#0xa8
000026  d1f8              BNE      |L8.26|
                  |L8.40|
000028  f7fffffe          BL       USBD_MSC_MemoryRead
00002c  bd10              POP      {r4,pc}
                  |L8.46|
00002e  f7fffffe          BL       USBD_MSC_SetCSW
000032  bd10              POP      {r4,pc}
                  |L8.52|
000034  4806              LDR      r0,|L8.80|
000036  2180              MOVS     r1,#0x80
000038  7800              LDRB     r0,[r0,#0]  ; usbd_msc_ep_bulkin
00003a  4308              ORRS     r0,r0,r1
00003c  f7fffffe          BL       USBD_MSC_SetStallEP
000040  f7fffffe          BL       USBD_MSC_SetCSW
000044  bd10              POP      {r4,pc}
;;;1141   
                          ENDP

000046  0000              DCW      0x0000
                  |L8.72|
                          DCD      ||.data||
                  |L8.76|
                          DCD      ||.bss||
                  |L8.80|
                          DCD      usbd_msc_ep_bulkin

                          AREA ||i.USBD_MSC_EP_BULKOUT_Event||, CODE, READONLY, ALIGN=2

                  USBD_MSC_EP_BULKOUT_Event PROC
;;;1148   
;;;1149   void USBD_MSC_EP_BULKOUT_Event(U32 event)
000000  b510              PUSH     {r4,lr}
;;;1150   {
;;;1151       BulkLen = USBD_ReadEP(usbd_msc_ep_bulkout, USBD_MSC_BulkBuf, USBD_MSC_BulkBufSize);
000002  4806              LDR      r0,|L9.28|
000004  4906              LDR      r1,|L9.32|
000006  8802              LDRH     r2,[r0,#0]  ; USBD_MSC_BulkBufSize
000008  4806              LDR      r0,|L9.36|
00000a  7800              LDRB     r0,[r0,#0]  ; usbd_msc_ep_bulkout
00000c  f7fffffe          BL       USBD_ReadEP
000010  4905              LDR      r1,|L9.40|
;;;1152       USBD_MSC_BulkOut();
000012  6308              STR      r0,[r1,#0x30]  ; BulkLen
000014  f7fffffe          BL       USBD_MSC_BulkOut
;;;1153   }
000018  bd10              POP      {r4,pc}
;;;1154   
                          ENDP

00001a  0000              DCW      0x0000
                  |L9.28|
                          DCD      USBD_MSC_BulkBufSize
                  |L9.32|
                          DCD      USBD_MSC_BulkBuf
                  |L9.36|
                          DCD      usbd_msc_ep_bulkout
                  |L9.40|
                          DCD      ||.data||

                          AREA ||i.USBD_MSC_EP_BULK_Event||, CODE, READONLY, ALIGN=2

                  USBD_MSC_EP_BULK_Event PROC
;;;1163   
;;;1164   void USBD_MSC_EP_BULK_Event(U32 event)
000000  b570              PUSH     {r4-r6,lr}
;;;1165   {
000002  4604              MOV      r4,r0
000004  4d17              LDR      r5,|L10.100|
;;;1166       if (event & USBD_EVT_OUT) {
000006  0740              LSLS     r0,r0,#29
000008  d509              BPL      |L10.30|
00000a  4817              LDR      r0,|L10.104|
00000c  4917              LDR      r1,|L10.108|
00000e  8802              LDRH     r2,[r0,#0]            ;1165  ; USBD_MSC_BulkBufSize
000010  4817              LDR      r0,|L10.112|
000012  7800              LDRB     r0,[r0,#0]            ;1165  ; usbd_msc_ep_bulkout
000014  f7fffffe          BL       USBD_ReadEP
000018  6328              STR      r0,[r5,#0x30]         ;1165  ; BulkLen
00001a  f7fffffe          BL       USBD_MSC_BulkOut
                  |L10.30|
;;;1167           USBD_MSC_EP_BULKOUT_Event(0);
;;;1168       }
;;;1169   
;;;1170       if (event & USBD_EVT_IN) {
00001e  0720              LSLS     r0,r4,#28
000020  d50a              BPL      |L10.56|
000022  7828              LDRB     r0,[r5,#0]  ; BulkStage
000024  2802              CMP      r0,#2
000026  d008              BEQ      |L10.58|
000028  2803              CMP      r0,#3
00002a  d00f              BEQ      |L10.76|
00002c  2804              CMP      r0,#4
00002e  d010              BEQ      |L10.82|
000030  2805              CMP      r0,#5
000032  d101              BNE      |L10.56|
000034  2000              MOVS     r0,#0
000036  7028              STRB     r0,[r5,#0]
                  |L10.56|
;;;1171           USBD_MSC_EP_BULKIN_Event(0);
;;;1172       }
;;;1173   }
000038  bd70              POP      {r4-r6,pc}
                  |L10.58|
00003a  480e              LDR      r0,|L10.116|
00003c  7bc0              LDRB     r0,[r0,#0xf]  ; USBD_MSC_CBW
00003e  2828              CMP      r0,#0x28
000040  d001              BEQ      |L10.70|
000042  28a8              CMP      r0,#0xa8
000044  d1f8              BNE      |L10.56|
                  |L10.70|
000046  f7fffffe          BL       USBD_MSC_MemoryRead
00004a  bd70              POP      {r4-r6,pc}
                  |L10.76|
00004c  f7fffffe          BL       USBD_MSC_SetCSW
000050  bd70              POP      {r4-r6,pc}
                  |L10.82|
000052  4809              LDR      r0,|L10.120|
000054  2180              MOVS     r1,#0x80
000056  7800              LDRB     r0,[r0,#0]  ; usbd_msc_ep_bulkin
000058  4308              ORRS     r0,r0,r1
00005a  f7fffffe          BL       USBD_MSC_SetStallEP
00005e  f7fffffe          BL       USBD_MSC_SetCSW
000062  bd70              POP      {r4-r6,pc}
;;;1174   
                          ENDP

                  |L10.100|
                          DCD      ||.data||
                  |L10.104|
                          DCD      USBD_MSC_BulkBufSize
                  |L10.108|
                          DCD      USBD_MSC_BulkBuf
                  |L10.112|
                          DCD      usbd_msc_ep_bulkout
                  |L10.116|
                          DCD      ||.bss||
                  |L10.120|
                          DCD      usbd_msc_ep_bulkin

                          AREA ||i.USBD_MSC_GetCBW||, CODE, READONLY, ALIGN=2

                  USBD_MSC_GetCBW PROC
;;;859    
;;;860    void USBD_MSC_GetCBW(void)
000000  b5f8              PUSH     {r3-r7,lr}
;;;861    {
;;;862        U32 n;
;;;863        U32 copy_size;
;;;864        copy_size = MIN(BulkLen, sizeof(USBD_MSC_CBW));
000002  4e8a              LDR      r6,|L11.556|
000004  6b32              LDR      r2,[r6,#0x30]  ; BulkLen
000006  2a1f              CMP      r2,#0x1f
000008  d201              BCS      |L11.14|
00000a  4611              MOV      r1,r2                 ;861
00000c  e000              B        |L11.16|
                  |L11.14|
00000e  211f              MOVS     r1,#0x1f
                  |L11.16|
;;;865    
;;;866        for (n = 0; n < copy_size; n++) {
000010  2000              MOVS     r0,#0
;;;867            *((U8 *)&USBD_MSC_CBW + n) = USBD_MSC_BulkBuf[n];
000012  4f87              LDR      r7,|L11.560|
000014  2900              CMP      r1,#0                 ;866
000016  d905              BLS      |L11.36|
000018  4b86              LDR      r3,|L11.564|
                  |L11.26|
00001a  5c1c              LDRB     r4,[r3,r0]
00001c  543c              STRB     r4,[r7,r0]
00001e  1c40              ADDS     r0,r0,#1
000020  4288              CMP      r0,r1                 ;866
000022  d3fa              BCC      |L11.26|
                  |L11.36|
;;;868        }
;;;869    
;;;870        if ((BulkLen == sizeof(USBD_MSC_CBW)) && (USBD_MSC_CBW.dSignature == MSC_CBW_Signature)) {
;;;871            /* Valid USBD_MSC_CBW */
;;;872            USBD_MSC_CSW.dTag = USBD_MSC_CBW.dTag;
;;;873            USBD_MSC_CSW.dDataResidue = USBD_MSC_CBW.dDataLength;
;;;874    
;;;875            if ((USBD_MSC_CBW.bLUN      >  1) ||
;;;876                    (USBD_MSC_CBW.bCBLength <  1) ||
;;;877                    (USBD_MSC_CBW.bCBLength > 16)) {
;;;878    fail:
;;;879                USBD_MSC_CSW.bStatus = CSW_CMD_FAILED;
000024  4884              LDR      r0,|L11.568|
;;;880                USBD_MSC_SetCSW();
;;;881            } else {
;;;882                switch (USBD_MSC_CBW.CB[0]) {
;;;883                    case SCSI_TEST_UNIT_READY:
;;;884                        USBD_MSC_TestUnitReady();
;;;885                        break;
;;;886    
;;;887                    case SCSI_REQUEST_SENSE:
;;;888                        USBD_MSC_RequestSense();
;;;889                        break;
;;;890    
;;;891                    case SCSI_FORMAT_UNIT:
;;;892                        goto fail;
;;;893    
;;;894                    case SCSI_INQUIRY:
;;;895                        USBD_MSC_Inquiry();
;;;896                        break;
;;;897    
;;;898                    case SCSI_START_STOP_UNIT:
;;;899                        USBD_MSC_StartStopUnit();
;;;900                        break;
;;;901    
;;;902                    case SCSI_MEDIA_REMOVAL:
;;;903                        USBD_MSC_MediaRemoval();
;;;904                        break;
;;;905    
;;;906                    case SCSI_MODE_SELECT6:
;;;907                        goto fail;
;;;908    
;;;909                    case SCSI_MODE_SENSE6:
;;;910                        USBD_MSC_ModeSense6();
;;;911                        break;
;;;912    
;;;913                    case SCSI_MODE_SELECT10:
;;;914                        goto fail;
;;;915    
;;;916                    case SCSI_MODE_SENSE10:
;;;917                        USBD_MSC_ModeSense10();
;;;918                        break;
;;;919    
;;;920                    case SCSI_READ_FORMAT_CAPACITIES:
;;;921                        USBD_MSC_ReadFormatCapacity();
;;;922                        break;
;;;923    
;;;924                    case SCSI_READ_CAPACITY:
;;;925                        USBD_MSC_ReadCapacity();
;;;926                        break;
;;;927    
;;;928                    case SCSI_ATA_COMMAND_PASS_THROUGH12:
;;;929                        USBD_MSC_ATAPassThrough();
;;;930                        break;
;;;931    
;;;932                    case SCSI_SERVICE_ACTION_IN16:
;;;933                        USBD_MSC_ServiceActionIn16();
;;;934                        break;
;;;935    
;;;936                    case SCSI_READ10:
;;;937                    case SCSI_READ12:
;;;938                        if (USBD_MSC_RWSetup()) {
;;;939                            if ((USBD_MSC_CBW.bmFlags & 0x80) != 0) {
;;;940                                BulkStage = MSC_BS_DATA_IN;
;;;941                                USBD_MSC_MemoryRead();
;;;942                            } else {                       /* direction mismatch */
;;;943                                USBD_MSC_SetStallEP(usbd_msc_ep_bulkout);
;;;944                                USBD_MSC_CSW.bStatus = CSW_PHASE_ERROR;
;;;945                                USBD_MSC_SetCSW();
;;;946                            }
;;;947                        }
;;;948    
;;;949                        break;
;;;950    
;;;951                    case SCSI_WRITE10:
;;;952                    case SCSI_WRITE12:
;;;953                        if (USBD_MSC_RWSetup()) {
;;;954                            if ((USBD_MSC_CBW.bmFlags & 0x80) == 0) {
;;;955                                BulkStage = MSC_BS_DATA_OUT;
;;;956                            } else {                       /* direction mismatch */
;;;957                                USBD_MSC_SetStallEP(usbd_msc_ep_bulkin | 0x80);
000026  2180              MOVS     r1,#0x80
000028  7800              LDRB     r0,[r0,#0]
00002a  2501              MOVS     r5,#1                 ;879
00002c  4308              ORRS     r0,r0,r1
00002e  2a1f              CMP      r2,#0x1f              ;870
000030  d16f              BNE      |L11.274|
000032  783b              LDRB     r3,[r7,#0]            ;870  ; USBD_MSC_CBW
000034  78fa              LDRB     r2,[r7,#3]            ;870  ; USBD_MSC_CBW
000036  4619              MOV      r1,r3                 ;870
000038  787b              LDRB     r3,[r7,#1]            ;870  ; USBD_MSC_CBW
00003a  0612              LSLS     r2,r2,#24             ;870
00003c  021b              LSLS     r3,r3,#8              ;870
00003e  4319              ORRS     r1,r1,r3              ;870
000040  78bb              LDRB     r3,[r7,#2]            ;870  ; USBD_MSC_CBW
000042  041b              LSLS     r3,r3,#16             ;870
000044  4319              ORRS     r1,r1,r3              ;870
000046  4311              ORRS     r1,r1,r2              ;870
000048  4a7c              LDR      r2,|L11.572|
00004a  4291              CMP      r1,r2                 ;870
00004c  d161              BNE      |L11.274|
00004e  793b              LDRB     r3,[r7,#4]            ;872  ; USBD_MSC_CBW
000050  79fa              LDRB     r2,[r7,#7]            ;872  ; USBD_MSC_CBW
000052  4619              MOV      r1,r3                 ;872
000054  797b              LDRB     r3,[r7,#5]            ;872  ; USBD_MSC_CBW
000056  0612              LSLS     r2,r2,#24             ;872
000058  021b              LSLS     r3,r3,#8              ;872
00005a  4319              ORRS     r1,r1,r3              ;872
00005c  79bb              LDRB     r3,[r7,#6]            ;872  ; USBD_MSC_CBW
00005e  4c78              LDR      r4,|L11.576|
000060  041b              LSLS     r3,r3,#16             ;872
000062  4319              ORRS     r1,r1,r3              ;872
000064  4311              ORRS     r1,r1,r2              ;872
000066  7121              STRB     r1,[r4,#4]            ;872
000068  0a0a              LSRS     r2,r1,#8              ;872
00006a  7162              STRB     r2,[r4,#5]            ;872
00006c  0c0a              LSRS     r2,r1,#16             ;872
00006e  71a2              STRB     r2,[r4,#6]            ;872
000070  0e09              LSRS     r1,r1,#24             ;872
000072  71e1              STRB     r1,[r4,#7]            ;872
000074  2108              MOVS     r1,#8                 ;873
000076  187a              ADDS     r2,r7,r1              ;873
000078  7813              LDRB     r3,[r2,#0]            ;873  ; USBD_MSC_CBW
00007a  4619              MOV      r1,r3                 ;873
00007c  7853              LDRB     r3,[r2,#1]            ;873  ; USBD_MSC_CBW
00007e  021b              LSLS     r3,r3,#8              ;873
000080  4319              ORRS     r1,r1,r3              ;873
000082  7893              LDRB     r3,[r2,#2]            ;873  ; USBD_MSC_CBW
000084  78d2              LDRB     r2,[r2,#3]            ;873  ; USBD_MSC_CBW
000086  041b              LSLS     r3,r3,#16             ;873
000088  4319              ORRS     r1,r1,r3              ;873
00008a  0612              LSLS     r2,r2,#24             ;873
00008c  4311              ORRS     r1,r1,r2              ;873
00008e  7221              STRB     r1,[r4,#8]            ;873
000090  0a0a              LSRS     r2,r1,#8              ;873
000092  7262              STRB     r2,[r4,#9]            ;873
000094  0c0a              LSRS     r2,r1,#16             ;873
000096  72a2              STRB     r2,[r4,#0xa]          ;873
000098  0e09              LSRS     r1,r1,#24             ;873
00009a  72e1              STRB     r1,[r4,#0xb]          ;873
00009c  7b79              LDRB     r1,[r7,#0xd]          ;875  ; USBD_MSC_CBW
00009e  2901              CMP      r1,#1                 ;875
0000a0  d804              BHI      |L11.172|
0000a2  7bb9              LDRB     r1,[r7,#0xe]          ;876  ; USBD_MSC_CBW
0000a4  2900              CMP      r1,#0                 ;876
0000a6  d001              BEQ      |L11.172|
0000a8  2910              CMP      r1,#0x10              ;877
0000aa  d901              BLS      |L11.176|
                  |L11.172|
0000ac  7325              STRB     r5,[r4,#0xc]          ;879
0000ae  e083              B        |L11.440|
                  |L11.176|
0000b0  7bf9              LDRB     r1,[r7,#0xf]          ;882  ; USBD_MSC_CBW
0000b2  292a              CMP      r1,#0x2a              ;882
0000b4  d03b              BEQ      |L11.302|
0000b6  dc21              BGT      |L11.252|
0000b8  291a              CMP      r1,#0x1a              ;882
0000ba  d04e              BEQ      |L11.346|
0000bc  dc0e              BGT      |L11.220|
0000be  2904              CMP      r1,#4                 ;882
0000c0  d0f4              BEQ      |L11.172|
0000c2  dc06              BGT      |L11.210|
0000c4  2900              CMP      r1,#0                 ;882
0000c6  d03b              BEQ      |L11.320|
0000c8  2903              CMP      r1,#3                 ;882
0000ca  d1ef              BNE      |L11.172|
0000cc  f7fffffe          BL       USBD_MSC_RequestSense
;;;958                                USBD_MSC_CSW.bStatus = CSW_PHASE_ERROR;
;;;959                                USBD_MSC_SetCSW();
;;;960                            }
;;;961                        }
;;;962    
;;;963                        break;
;;;964    
;;;965                    case SCSI_VERIFY10:
;;;966                        if ((USBD_MSC_CBW.CB[1] & 0x02) == 0) {
;;;967                            // BYTCHK = 0 -> CRC Check (not implemented)
;;;968                            USBD_MSC_CSW.bStatus = CSW_CMD_PASSED;
;;;969                            USBD_MSC_SetCSW();
;;;970                            break;
;;;971                        }
;;;972    
;;;973                        if (USBD_MSC_RWSetup()) {
;;;974                            if ((USBD_MSC_CBW.bmFlags & 0x80) == 0) {
;;;975                                BulkStage = MSC_BS_DATA_OUT;
;;;976                                MemOK = __TRUE;
;;;977                            } else {
;;;978                                USBD_MSC_SetStallEP(usbd_msc_ep_bulkin | 0x80);
;;;979                                USBD_MSC_CSW.bStatus = CSW_PHASE_ERROR;
;;;980                                USBD_MSC_SetCSW();
;;;981                            }
;;;982                        }
;;;983    
;;;984                        break;
;;;985    
;;;986                    case SCSI_SYNC_CACHE10:
;;;987                    case SCSI_SYNC_CACHE16:
;;;988                        USBD_MSC_SynchronizeCache();
;;;989                        break;
;;;990    
;;;991                    case SCSI_REPORT_ID_INFO:
;;;992                        USBD_MSC_SetStallEP(usbd_msc_ep_bulkin | 0x80);
;;;993                        goto fail;
;;;994    
;;;995                    default:
;;;996                        goto fail;
;;;997                }
;;;998            }
;;;999        } else {
;;;1000           /* Invalid USBD_MSC_CBW */
;;;1001           USBD_MSC_SetStallEP(usbd_msc_ep_bulkin | 0x80);
;;;1002           /* set EP to stay stalled */
;;;1003           USBD_EndPointStall |= ((1 << 16) << (usbd_msc_ep_bulkin & 0x0F));
;;;1004           USBD_MSC_SetStallEP(usbd_msc_ep_bulkout);
;;;1005           /* set EP to stay stalled */
;;;1006           USBD_EndPointStall |=  1 << usbd_msc_ep_bulkout;
;;;1007           BulkStage = MSC_BS_ERROR;
;;;1008       }
;;;1009   }
0000d0  bdf8              POP      {r3-r7,pc}
                  |L11.210|
0000d2  2912              CMP      r1,#0x12              ;882
0000d4  d1ea              BNE      |L11.172|
0000d6  f7fffffe          BL       USBD_MSC_Inquiry
                  |L11.218|
0000da  bdf8              POP      {r3-r7,pc}
                  |L11.220|
0000dc  2923              CMP      r1,#0x23              ;882
0000de  d042              BEQ      |L11.358|
0000e0  dc07              BGT      |L11.242|
0000e2  291b              CMP      r1,#0x1b              ;882
0000e4  d02f              BEQ      |L11.326|
0000e6  291e              CMP      r1,#0x1e              ;882
0000e8  d1e0              BNE      |L11.172|
0000ea  7cf8              LDRB     r0,[r7,#0x13]         ;882  ; USBD_MSC_CBW
0000ec  07c0              LSLS     r0,r0,#31             ;882
0000ee  d1dd              BNE      |L11.172|
0000f0  e07e              B        |L11.496|
                  |L11.242|
0000f2  2925              CMP      r1,#0x25              ;882
0000f4  d03a              BEQ      |L11.364|
0000f6  2928              CMP      r1,#0x28              ;882
0000f8  d1d8              BNE      |L11.172|
0000fa  e040              B        |L11.382|
                  |L11.252|
0000fc  299e              CMP      r1,#0x9e              ;882
0000fe  d03b              BEQ      |L11.376|
000100  dc0d              BGT      |L11.286|
000102  2955              CMP      r1,#0x55              ;882
000104  d0d2              BEQ      |L11.172|
000106  dc05              BGT      |L11.276|
000108  292f              CMP      r1,#0x2f              ;882
00010a  d058              BEQ      |L11.446|
00010c  2935              CMP      r1,#0x35              ;882
00010e  d1cd              BNE      |L11.172|
000110  e058              B        |L11.452|
                  |L11.274|
000112  e072              B        |L11.506|
                  |L11.276|
000114  295a              CMP      r1,#0x5a              ;882
000116  d023              BEQ      |L11.352|
000118  2991              CMP      r1,#0x91              ;882
00011a  d1c7              BNE      |L11.172|
00011c  e052              B        |L11.452|
                  |L11.286|
00011e  29a1              CMP      r1,#0xa1              ;882
000120  d027              BEQ      |L11.370|
000122  29a3              CMP      r1,#0xa3              ;882
000124  d066              BEQ      |L11.500|
000126  29a8              CMP      r1,#0xa8              ;882
000128  d029              BEQ      |L11.382|
00012a  29aa              CMP      r1,#0xaa              ;882
00012c  d1be              BNE      |L11.172|
                  |L11.302|
00012e  f7fffffe          BL       USBD_MSC_RWSetup
000132  2800              CMP      r0,#0                 ;953
000134  d0d1              BEQ      |L11.218|
000136  7b38              LDRB     r0,[r7,#0xc]          ;954  ; USBD_MSC_CBW
000138  0600              LSLS     r0,r0,#24             ;954
00013a  d435              BMI      |L11.424|
00013c  7035              STRB     r5,[r6,#0]            ;955
00013e  bdf8              POP      {r3-r7,pc}
                  |L11.320|
000140  f7fffffe          BL       USBD_MSC_TestUnitReady
000144  bdf8              POP      {r3-r7,pc}
                  |L11.326|
000146  7cb8              LDRB     r0,[r7,#0x12]  ; USBD_MSC_CBW
000148  2800              CMP      r0,#0
00014a  d1af              BNE      |L11.172|
00014c  7cf8              LDRB     r0,[r7,#0x13]  ; USBD_MSC_CBW
00014e  07c0              LSLS     r0,r0,#31
000150  0fc0              LSRS     r0,r0,#31
000152  6070              STR      r0,[r6,#4]  ; USBD_MSC_MediaReady
000154  f7fffffe          BL       usbd_msc_start_stop
000158  e034              B        |L11.452|
                  |L11.346|
00015a  f7fffffe          BL       USBD_MSC_ModeSense6
00015e  bdf8              POP      {r3-r7,pc}
                  |L11.352|
000160  f7fffffe          BL       USBD_MSC_ModeSense10
000164  bdf8              POP      {r3-r7,pc}
                  |L11.358|
000166  f7fffffe          BL       USBD_MSC_ReadFormatCapacity
00016a  bdf8              POP      {r3-r7,pc}
                  |L11.364|
00016c  f7fffffe          BL       USBD_MSC_ReadCapacity
000170  bdf8              POP      {r3-r7,pc}
                  |L11.370|
000172  f7fffffe          BL       USBD_MSC_ATAPassThrough
000176  bdf8              POP      {r3-r7,pc}
                  |L11.376|
000178  f7fffffe          BL       USBD_MSC_ServiceActionIn16
                  |L11.380|
00017c  bdf8              POP      {r3-r7,pc}
                  |L11.382|
00017e  f7fffffe          BL       USBD_MSC_RWSetup
000182  2800              CMP      r0,#0                 ;938
000184  d0fa              BEQ      |L11.380|
000186  7b38              LDRB     r0,[r7,#0xc]          ;939  ; USBD_MSC_CBW
000188  0600              LSLS     r0,r0,#24             ;939
00018a  d504              BPL      |L11.406|
00018c  2002              MOVS     r0,#2                 ;940
00018e  7030              STRB     r0,[r6,#0]            ;940
000190  f7fffffe          BL       USBD_MSC_MemoryRead
000194  bdf8              POP      {r3-r7,pc}
                  |L11.406|
000196  482b              LDR      r0,|L11.580|
000198  7800              LDRB     r0,[r0,#0]            ;943  ; usbd_msc_ep_bulkout
00019a  f7fffffe          BL       USBD_MSC_SetStallEP
00019e  2002              MOVS     r0,#2                 ;944
0001a0  7320              STRB     r0,[r4,#0xc]          ;944
0001a2  f7fffffe          BL       USBD_MSC_SetCSW
0001a6  bdf8              POP      {r3-r7,pc}
                  |L11.424|
0001a8  4823              LDR      r0,|L11.568|
0001aa  2180              MOVS     r1,#0x80              ;957
0001ac  7800              LDRB     r0,[r0,#0]            ;957  ; usbd_msc_ep_bulkin
0001ae  4308              ORRS     r0,r0,r1              ;957
0001b0  f7fffffe          BL       USBD_MSC_SetStallEP
0001b4  2002              MOVS     r0,#2                 ;958
0001b6  7320              STRB     r0,[r4,#0xc]          ;958
                  |L11.440|
0001b8  f7fffffe          BL       USBD_MSC_SetCSW
0001bc  bdf8              POP      {r3-r7,pc}
                  |L11.446|
0001be  7c38              LDRB     r0,[r7,#0x10]         ;966  ; USBD_MSC_CBW
0001c0  0780              LSLS     r0,r0,#30             ;966
0001c2  d404              BMI      |L11.462|
                  |L11.452|
0001c4  2000              MOVS     r0,#0                 ;968
0001c6  7320              STRB     r0,[r4,#0xc]          ;968
0001c8  f7fffffe          BL       USBD_MSC_SetCSW
                  |L11.460|
0001cc  bdf8              POP      {r3-r7,pc}
                  |L11.462|
0001ce  f7fffffe          BL       USBD_MSC_RWSetup
0001d2  2800              CMP      r0,#0                 ;973
0001d4  d0fa              BEQ      |L11.460|
0001d6  7b38              LDRB     r0,[r7,#0xc]          ;974  ; USBD_MSC_CBW
0001d8  0600              LSLS     r0,r0,#24             ;974
0001da  d402              BMI      |L11.482|
0001dc  7035              STRB     r5,[r6,#0]            ;975
0001de  6235              STR      r5,[r6,#0x20]         ;976  ; MemOK
0001e0  bdf8              POP      {r3-r7,pc}
                  |L11.482|
0001e2  4815              LDR      r0,|L11.568|
0001e4  2180              MOVS     r1,#0x80              ;978
0001e6  7800              LDRB     r0,[r0,#0]            ;978  ; usbd_msc_ep_bulkin
0001e8  4308              ORRS     r0,r0,r1              ;978
0001ea  f7fffffe          BL       USBD_MSC_SetStallEP
0001ee  2002              MOVS     r0,#2                 ;979
                  |L11.496|
0001f0  7320              STRB     r0,[r4,#0xc]          ;979
0001f2  e7e1              B        |L11.440|
                  |L11.500|
0001f4  f7fffffe          BL       USBD_MSC_SetStallEP
0001f8  e758              B        |L11.172|
                  |L11.506|
0001fa  4c0f              LDR      r4,|L11.568|
0001fc  f7fffffe          BL       USBD_MSC_SetStallEP
000200  7820              LDRB     r0,[r4,#0]            ;1003  ; usbd_msc_ep_bulkin
000202  4c11              LDR      r4,|L11.584|
000204  0701              LSLS     r1,r0,#28             ;1003
000206  0f09              LSRS     r1,r1,#28             ;1003
000208  2001              MOVS     r0,#1                 ;1003
00020a  0400              LSLS     r0,r0,#16             ;1003
00020c  4088              LSLS     r0,r0,r1              ;1003
00020e  6821              LDR      r1,[r4,#0]            ;1003  ; USBD_EndPointStall
000210  4f0c              LDR      r7,|L11.580|
000212  4308              ORRS     r0,r0,r1              ;1003
000214  6020              STR      r0,[r4,#0]            ;1004  ; USBD_EndPointStall
000216  7838              LDRB     r0,[r7,#0]            ;1004  ; usbd_msc_ep_bulkout
000218  f7fffffe          BL       USBD_MSC_SetStallEP
00021c  7838              LDRB     r0,[r7,#0]            ;1006  ; usbd_msc_ep_bulkout
00021e  4085              LSLS     r5,r5,r0              ;1006
000220  6820              LDR      r0,[r4,#0]            ;1006  ; USBD_EndPointStall
000222  4305              ORRS     r5,r5,r0              ;1006
000224  2006              MOVS     r0,#6                 ;1007
000226  6025              STR      r5,[r4,#0]            ;1007  ; USBD_EndPointStall
000228  7030              STRB     r0,[r6,#0]            ;1007
00022a  bdf8              POP      {r3-r7,pc}
;;;1010   
                          ENDP

                  |L11.556|
                          DCD      ||.data||
                  |L11.560|
                          DCD      ||.bss||
                  |L11.564|
                          DCD      USBD_MSC_BulkBuf
                  |L11.568|
                          DCD      usbd_msc_ep_bulkin
                  |L11.572|
                          DCD      0x43425355
                  |L11.576|
                          DCD      ||.bss||+0x1f
                  |L11.580|
                          DCD      usbd_msc_ep_bulkout
                  |L11.584|
                          DCD      USBD_EndPointStall

                          AREA ||i.USBD_MSC_GetMaxLUN||, CODE, READONLY, ALIGN=2

                  USBD_MSC_GetMaxLUN PROC
;;;132    
;;;133    BOOL USBD_MSC_GetMaxLUN(void)
000000  b510              PUSH     {r4,lr}
;;;134    {
;;;135        if (vfs_nvm_is_available()!=0u)
000002  f7fffffe          BL       vfs_nvm_is_available
;;;136        {
;;;137            USBD_EP0Buf[0] = 1;                      /* two LUNs associated with this device */
000006  4903              LDR      r1,|L12.20|
000008  2800              CMP      r0,#0                 ;135
00000a  d000              BEQ      |L12.14|
00000c  2001              MOVS     r0,#1
                  |L12.14|
;;;138        }
;;;139        else
;;;140        {
;;;141            USBD_EP0Buf[0] = 0;                      /* one LUN associated with this device */
00000e  7008              STRB     r0,[r1,#0]
;;;142        }
;;;143    
;;;144        return (__TRUE);
000010  2001              MOVS     r0,#1
;;;145    }
000012  bd10              POP      {r4,pc}
;;;146    
                          ENDP

                  |L12.20|
                          DCD      USBD_EP0Buf

                          AREA ||i.USBD_MSC_Inquiry||, CODE, READONLY, ALIGN=2

                  USBD_MSC_Inquiry PROC
;;;570    
;;;571    void USBD_MSC_Inquiry(void)
000000  b510              PUSH     {r4,lr}
;;;572    {
;;;573        U8  i;
;;;574        U8 *ptr_str;
;;;575    
;;;576        if (!USBD_MSC_DataInFormat()) {
000002  f7fffffe          BL       USBD_MSC_DataInFormat
000006  2800              CMP      r0,#0
000008  d01f              BEQ      |L13.74|
;;;577            return;
;;;578        }
;;;579    
;;;580        USBD_MSC_BulkBuf[ 0] = 0x00;             /* Direct Access Device */
00000a  4b10              LDR      r3,|L13.76|
00000c  2000              MOVS     r0,#0
00000e  7018              STRB     r0,[r3,#0]
;;;581        USBD_MSC_BulkBuf[ 1] = 0x80;             /* RMB = 1: Removable Medium */
000010  2180              MOVS     r1,#0x80
000012  7059              STRB     r1,[r3,#1]
;;;582        USBD_MSC_BulkBuf[ 2] = 0x02;             /* Version: ANSI X3.131: 1994 */
000014  2102              MOVS     r1,#2
000016  7099              STRB     r1,[r3,#2]
;;;583        USBD_MSC_BulkBuf[ 3] = 0x02;
000018  70d9              STRB     r1,[r3,#3]
;;;584        USBD_MSC_BulkBuf[ 4] = 36 - 4;           /* Additional Length */
00001a  2420              MOVS     r4,#0x20
00001c  711c              STRB     r4,[r3,#4]
;;;585        USBD_MSC_BulkBuf[ 5] = 0x00;             /* SCCS = 0: No Storage Controller Component */
00001e  7158              STRB     r0,[r3,#5]
;;;586        USBD_MSC_BulkBuf[ 6] = 0x00;
000020  7198              STRB     r0,[r3,#6]
;;;587        USBD_MSC_BulkBuf[ 7] = 0x00;
000022  71d8              STRB     r0,[r3,#7]
;;;588        ptr_str = (U8 *)usbd_msc_inquiry_data;
000024  480a              LDR      r0,|L13.80|
;;;589    
;;;590        for (i = 8; i < 36; i++) {               /* Product Information    + */
000026  6801              LDR      r1,[r0,#0]  ; usbd_msc_inquiry_data
000028  2008              MOVS     r0,#8
                  |L13.42|
;;;591            if (*ptr_str) {                        /* Product Revision Level   */
00002a  780a              LDRB     r2,[r1,#0]
00002c  2a00              CMP      r2,#0
00002e  d002              BEQ      |L13.54|
;;;592                USBD_MSC_BulkBuf[i] = *ptr_str++;
000030  541a              STRB     r2,[r3,r0]
000032  1c49              ADDS     r1,r1,#1
000034  e000              B        |L13.56|
                  |L13.54|
;;;593            } else {
;;;594                USBD_MSC_BulkBuf[i] = ' ';
000036  541c              STRB     r4,[r3,r0]
                  |L13.56|
000038  1c40              ADDS     r0,r0,#1
00003a  b2c0              UXTB     r0,r0                 ;590
00003c  2824              CMP      r0,#0x24              ;590
00003e  d3f4              BCC      |L13.42|
;;;595            }
;;;596        }
;;;597    
;;;598        BulkLen = 36;
000040  4904              LDR      r1,|L13.84|
000042  2024              MOVS     r0,#0x24
;;;599        USBD_MSC_DataInTransfer();
000044  6308              STR      r0,[r1,#0x30]  ; BulkLen
000046  f7fffffe          BL       USBD_MSC_DataInTransfer
                  |L13.74|
;;;600    }
00004a  bd10              POP      {r4,pc}
;;;601    
                          ENDP

                  |L13.76|
                          DCD      USBD_MSC_BulkBuf
                  |L13.80|
                          DCD      usbd_msc_inquiry_data
                  |L13.84|
                          DCD      ||.data||

                          AREA ||i.USBD_MSC_MediaRemoval||, CODE, READONLY, ALIGN=2

                  USBD_MSC_MediaRemoval PROC
;;;629    
;;;630    void USBD_MSC_MediaRemoval(void)
000000  b510              PUSH     {r4,lr}
;;;631    {
;;;632        if (USBD_MSC_CBW.CB[4] & 1) {            /* If prevent */
000002  4805              LDR      r0,|L14.24|
000004  7cc0              LDRB     r0,[r0,#0x13]  ; USBD_MSC_CBW
000006  07c1              LSLS     r1,r0,#31
;;;633            USBD_MSC_CSW.bStatus = CSW_CMD_FAILED;    /* Prevent media removal -> fail */
000008  4804              LDR      r0,|L14.28|
00000a  d000              BEQ      |L14.14|
00000c  2101              MOVS     r1,#1
                  |L14.14|
;;;634        } else {                                 /* If allow */
;;;635            USBD_MSC_CSW.bStatus = CSW_CMD_PASSED;    /* Allow media removal -> pass */
00000e  7301              STRB     r1,[r0,#0xc]
;;;636        }
;;;637    
;;;638        USBD_MSC_SetCSW();
000010  f7fffffe          BL       USBD_MSC_SetCSW
;;;639    }
000014  bd10              POP      {r4,pc}
;;;640    
                          ENDP

000016  0000              DCW      0x0000
                  |L14.24|
                          DCD      ||.bss||
                  |L14.28|
                          DCD      ||.bss||+0x1f

                          AREA ||i.USBD_MSC_MemoryRead||, CODE, READONLY, ALIGN=2

                  USBD_MSC_MemoryRead PROC
;;;185    
;;;186    void USBD_MSC_MemoryRead(void)
000000  b5f8              PUSH     {r3-r7,lr}
;;;187    {
;;;188        U32 n, m;
;;;189    
;;;190        if (Block >= USBD_MSC_BlockCount) {
000002  4d38              LDR      r5,|L15.228|
000004  2600              MOVS     r6,#0
000006  69a9              LDR      r1,[r5,#0x18]  ; USBD_MSC_BlockCount
000008  6a68              LDR      r0,[r5,#0x24]  ; Block
;;;191            n = 0;
;;;192            USBD_MSC_SetStallEP(usbd_msc_ep_bulkin | 0x80);
;;;193            USBD_MSC_CSW.bStatus = CSW_CMD_PASSED;
00000a  4f37              LDR      r7,|L15.232|
00000c  4288              CMP      r0,r1                 ;190
00000e  d30a              BCC      |L15.38|
000010  4836              LDR      r0,|L15.236|
000012  2180              MOVS     r1,#0x80              ;192
000014  7800              LDRB     r0,[r0,#0]            ;192  ; usbd_msc_ep_bulkin
000016  2400              MOVS     r4,#0                 ;191
000018  4308              ORRS     r0,r0,r1              ;192
00001a  f7fffffe          BL       USBD_MSC_SetStallEP
00001e  733e              STRB     r6,[r7,#0xc]
;;;194            USBD_MSC_SetCSW();
000020  f7fffffe          BL       USBD_MSC_SetCSW
000024  e008              B        |L15.56|
                  |L15.38|
;;;195        } else {
;;;196            if (Length > usbd_msc_maxpacketsize[USBD_HighSpeed]) {
000026  4832              LDR      r0,|L15.240|
000028  7800              LDRB     r0,[r0,#0]  ; USBD_HighSpeed
00002a  0041              LSLS     r1,r0,#1
00002c  4831              LDR      r0,|L15.244|
00002e  5a44              LDRH     r4,[r0,r1]
000030  6ae8              LDR      r0,[r5,#0x2c]  ; Length
000032  4284              CMP      r4,r0
000034  d300              BCC      |L15.56|
;;;197                n = usbd_msc_maxpacketsize[USBD_HighSpeed];
;;;198            } else {
;;;199                n = Length;
000036  4604              MOV      r4,r0
                  |L15.56|
;;;200            }
;;;201        }
;;;202    
;;;203        if (!USBD_MSC_CheckMedia()) {
000038  f7fffffe          BL       USBD_MSC_CheckMedia
00003c  2800              CMP      r0,#0
00003e  d100              BNE      |L15.66|
;;;204            n = 0;
000040  2400              MOVS     r4,#0
                  |L15.66|
;;;205        }
;;;206    
;;;207        if ((Offset == 0) && (n != 0)) {
000042  6aa8              LDR      r0,[r5,#0x28]  ; Offset
000044  2800              CMP      r0,#0
000046  d039              BEQ      |L15.188|
;;;208            m = (Length + (USBD_MSC_BlockSize - 1)) / USBD_MSC_BlockSize;
;;;209    
;;;210            if (m > USBD_MSC_BlockGroup) {
;;;211                m = USBD_MSC_BlockGroup;
;;;212            }
;;;213    
;;;214            usbd_msc_read_sect(Block, USBD_MSC_BlockBuf, m, USBD_MSC_CBW.bLUN);
;;;215        }
;;;216    
;;;217        if (n) {
000048  2c00              CMP      r4,#0
00004a  d00f              BEQ      |L15.108|
                  |L15.76|
;;;218            USBD_WriteEP(usbd_msc_ep_bulkin | 0x80, &USBD_MSC_BlockBuf[Offset], n);
00004c  6aa9              LDR      r1,[r5,#0x28]  ; Offset
00004e  69e8              LDR      r0,[r5,#0x1c]  ; USBD_MSC_BlockBuf
000050  2280              MOVS     r2,#0x80
000052  1841              ADDS     r1,r0,r1
000054  4825              LDR      r0,|L15.236|
000056  7800              LDRB     r0,[r0,#0]  ; usbd_msc_ep_bulkin
000058  4310              ORRS     r0,r0,r2
00005a  4622              MOV      r2,r4
00005c  f7fffffe          BL       USBD_WriteEP
;;;219            Offset += n;
000060  6aa8              LDR      r0,[r5,#0x28]  ; Offset
000062  1900              ADDS     r0,r0,r4
;;;220            Length -= n;
000064  62a8              STR      r0,[r5,#0x28]  ; Offset
000066  6ae8              LDR      r0,[r5,#0x2c]  ; Length
000068  1b00              SUBS     r0,r0,r4
00006a  62e8              STR      r0,[r5,#0x2c]  ; Length
                  |L15.108|
;;;221        }
;;;222    
;;;223        if (Offset == USBD_MSC_BlockGroup * USBD_MSC_BlockSize) {
00006c  6929              LDR      r1,[r5,#0x10]  ; USBD_MSC_BlockSize
00006e  6968              LDR      r0,[r5,#0x14]  ; USBD_MSC_BlockGroup
000070  6aaa              LDR      r2,[r5,#0x28]  ; Offset
000072  4341              MULS     r1,r0,r1
000074  4291              CMP      r1,r2
000076  d103              BNE      |L15.128|
;;;224            Offset = 0;
;;;225            Block += USBD_MSC_BlockGroup;
000078  62ae              STR      r6,[r5,#0x28]  ; Offset
00007a  6a69              LDR      r1,[r5,#0x24]  ; Block
00007c  1808              ADDS     r0,r1,r0
00007e  6268              STR      r0,[r5,#0x24]  ; Block
                  |L15.128|
;;;226        }
;;;227    
;;;228        USBD_MSC_CSW.dDataResidue -= n;
000080  2008              MOVS     r0,#8
000082  1839              ADDS     r1,r7,r0
000084  780a              LDRB     r2,[r1,#0]  ; USBD_MSC_CSW
000086  4610              MOV      r0,r2
000088  784a              LDRB     r2,[r1,#1]  ; USBD_MSC_CSW
00008a  0212              LSLS     r2,r2,#8
00008c  4310              ORRS     r0,r0,r2
00008e  788a              LDRB     r2,[r1,#2]  ; USBD_MSC_CSW
000090  78c9              LDRB     r1,[r1,#3]  ; USBD_MSC_CSW
000092  0412              LSLS     r2,r2,#16
000094  4310              ORRS     r0,r0,r2
000096  0609              LSLS     r1,r1,#24
000098  4308              ORRS     r0,r0,r1
00009a  1b00              SUBS     r0,r0,r4
00009c  7238              STRB     r0,[r7,#8]
00009e  0a01              LSRS     r1,r0,#8
0000a0  7279              STRB     r1,[r7,#9]
0000a2  0c01              LSRS     r1,r0,#16
0000a4  0e00              LSRS     r0,r0,#24
0000a6  72b9              STRB     r1,[r7,#0xa]
0000a8  72f8              STRB     r0,[r7,#0xb]
;;;229    
;;;230        if (!n) {
0000aa  2c00              CMP      r4,#0
0000ac  d005              BEQ      |L15.186|
;;;231            return;
;;;232        }
;;;233    
;;;234        if (Length == 0) {
0000ae  6ae8              LDR      r0,[r5,#0x2c]  ; Length
0000b0  2800              CMP      r0,#0
0000b2  d102              BNE      |L15.186|
;;;235            BulkStage = MSC_BS_DATA_IN_LAST;
0000b4  2003              MOVS     r0,#3
0000b6  7028              STRB     r0,[r5,#0]
;;;236            USBD_MSC_CSW.bStatus = CSW_CMD_PASSED;
0000b8  733e              STRB     r6,[r7,#0xc]
                  |L15.186|
;;;237        }
;;;238    }
0000ba  bdf8              POP      {r3-r7,pc}
                  |L15.188|
0000bc  2c00              CMP      r4,#0                 ;207
0000be  d0d5              BEQ      |L15.108|
0000c0  6929              LDR      r1,[r5,#0x10]         ;208  ; USBD_MSC_BlockSize
0000c2  6ae8              LDR      r0,[r5,#0x2c]         ;208  ; Length
0000c4  1840              ADDS     r0,r0,r1              ;208
0000c6  1e40              SUBS     r0,r0,#1              ;208
0000c8  f7fffffe          BL       __aeabi_uidivmod
0000cc  6969              LDR      r1,[r5,#0x14]         ;210  ; USBD_MSC_BlockGroup
0000ce  4602              MOV      r2,r0                 ;208
0000d0  4288              CMP      r0,r1                 ;210
0000d2  d900              BLS      |L15.214|
0000d4  460a              MOV      r2,r1                 ;211
                  |L15.214|
0000d6  4808              LDR      r0,|L15.248|
0000d8  69e9              LDR      r1,[r5,#0x1c]         ;214  ; USBD_MSC_BlockBuf
0000da  7b43              LDRB     r3,[r0,#0xd]          ;214  ; USBD_MSC_CBW
0000dc  6a68              LDR      r0,[r5,#0x24]         ;214  ; Block
0000de  f7fffffe          BL       usbd_msc_read_sect
0000e2  e7b3              B        |L15.76|
;;;239    
                          ENDP

                  |L15.228|
                          DCD      ||.data||
                  |L15.232|
                          DCD      ||.bss||+0x1f
                  |L15.236|
                          DCD      usbd_msc_ep_bulkin
                  |L15.240|
                          DCD      USBD_HighSpeed
                  |L15.244|
                          DCD      usbd_msc_maxpacketsize
                  |L15.248|
                          DCD      ||.bss||

                          AREA ||i.USBD_MSC_MemoryVerify||, CODE, READONLY, ALIGN=2

                  USBD_MSC_MemoryVerify PROC
;;;313    
;;;314    void USBD_MSC_MemoryVerify(void)
000000  b5f8              PUSH     {r3-r7,lr}
;;;315    {
;;;316        U32 n;
;;;317    
;;;318        if (Block >= USBD_MSC_BlockCount) {
000002  4c3a              LDR      r4,|L16.236|
000004  2500              MOVS     r5,#0
000006  69a1              LDR      r1,[r4,#0x18]  ; USBD_MSC_BlockCount
000008  6a60              LDR      r0,[r4,#0x24]  ; Block
00000a  4288              CMP      r0,r1
00000c  d308              BCC      |L16.32|
;;;319            BulkLen = 0;
;;;320            USBD_MSC_SetStallEP(usbd_msc_ep_bulkout);
00000e  4838              LDR      r0,|L16.240|
000010  6325              STR      r5,[r4,#0x30]  ; BulkLen
000012  7800              LDRB     r0,[r0,#0]  ; usbd_msc_ep_bulkout
000014  f7fffffe          BL       USBD_MSC_SetStallEP
;;;321            USBD_MSC_CSW.bStatus = CSW_CMD_PASSED;
000018  4836              LDR      r0,|L16.244|
00001a  7305              STRB     r5,[r0,#0xc]
;;;322            USBD_MSC_SetCSW();
00001c  f7fffffe          BL       USBD_MSC_SetCSW
                  |L16.32|
;;;323        }
;;;324    
;;;325        if (!USBD_MSC_CheckMedia()) {
000020  f7fffffe          BL       USBD_MSC_CheckMedia
000024  2800              CMP      r0,#0
000026  d006              BEQ      |L16.54|
;;;326            BulkLen = 0;
;;;327        }
;;;328    
;;;329        if (BulkLen) {
000028  6b20              LDR      r0,[r4,#0x30]  ; BulkLen
00002a  2800              CMP      r0,#0
00002c  d027              BEQ      |L16.126|
;;;330            if ((Offset == 0) && (BulkLen != 0)) {
00002e  6aa0              LDR      r0,[r4,#0x28]  ; Offset
000030  2800              CMP      r0,#0
000032  d002              BEQ      |L16.58|
000034  e012              B        |L16.92|
                  |L16.54|
000036  6325              STR      r5,[r4,#0x30]         ;326  ; BulkLen
000038  e021              B        |L16.126|
                  |L16.58|
;;;331                n = (Length + (USBD_MSC_BlockSize - 1)) / USBD_MSC_BlockSize;
00003a  6921              LDR      r1,[r4,#0x10]  ; USBD_MSC_BlockSize
00003c  6ae0              LDR      r0,[r4,#0x2c]  ; Length
00003e  1840              ADDS     r0,r0,r1
000040  1e40              SUBS     r0,r0,#1
000042  f7fffffe          BL       __aeabi_uidivmod
;;;332    
;;;333                if (n > USBD_MSC_BlockGroup) {
000046  6961              LDR      r1,[r4,#0x14]  ; USBD_MSC_BlockGroup
000048  4602              MOV      r2,r0                 ;331
00004a  4288              CMP      r0,r1
00004c  d900              BLS      |L16.80|
;;;334                    n = USBD_MSC_BlockGroup;
00004e  460a              MOV      r2,r1
                  |L16.80|
;;;335                }
;;;336    
;;;337                usbd_msc_read_sect(Block, USBD_MSC_BlockBuf, n, USBD_MSC_CBW.bLUN);
000050  4829              LDR      r0,|L16.248|
000052  69e1              LDR      r1,[r4,#0x1c]  ; USBD_MSC_BlockBuf
000054  7b43              LDRB     r3,[r0,#0xd]  ; USBD_MSC_CBW
000056  6a60              LDR      r0,[r4,#0x24]  ; Block
000058  f7fffffe          BL       usbd_msc_read_sect
                  |L16.92|
;;;338            }
;;;339    
;;;340            for (n = 0; n < BulkLen; n++) {
00005c  6b27              LDR      r7,[r4,#0x30]  ; BulkLen
00005e  2000              MOVS     r0,#0
000060  2f00              CMP      r7,#0
000062  d90c              BLS      |L16.126|
000064  6aa6              LDR      r6,[r4,#0x28]         ;337
000066  69e3              LDR      r3,[r4,#0x1c]         ;337
                  |L16.104|
;;;341                if (USBD_MSC_BlockBuf[Offset + n] != USBD_MSC_BulkBuf[n]) {
000068  1831              ADDS     r1,r6,r0
00006a  5c5a              LDRB     r2,[r3,r1]
00006c  4923              LDR      r1,|L16.252|
00006e  5c09              LDRB     r1,[r1,r0]
000070  428a              CMP      r2,r1
000072  d001              BEQ      |L16.120|
;;;342                    MemOK = __FALSE;
;;;343                    break;
000074  6225              STR      r5,[r4,#0x20]  ; MemOK
000076  e002              B        |L16.126|
                  |L16.120|
000078  1c40              ADDS     r0,r0,#1
00007a  42b8              CMP      r0,r7                 ;340
00007c  d3f4              BCC      |L16.104|
                  |L16.126|
;;;344                }
;;;345            }
;;;346        }
;;;347    
;;;348        Offset += BulkLen;
00007e  6b23              LDR      r3,[r4,#0x30]  ; BulkLen
000080  6aa0              LDR      r0,[r4,#0x28]  ; Offset
000082  18c0              ADDS     r0,r0,r3
;;;349        Length -= BulkLen;
000084  62a0              STR      r0,[r4,#0x28]  ; Offset
000086  6ae1              LDR      r1,[r4,#0x2c]  ; Length
000088  1ace              SUBS     r6,r1,r3
;;;350    
;;;351        if (Offset == USBD_MSC_BlockGroup * USBD_MSC_BlockSize) {
00008a  62e6              STR      r6,[r4,#0x2c]  ; Length
00008c  6922              LDR      r2,[r4,#0x10]  ; USBD_MSC_BlockSize
00008e  6961              LDR      r1,[r4,#0x14]  ; USBD_MSC_BlockGroup
000090  434a              MULS     r2,r1,r2
000092  4282              CMP      r2,r0
000094  d103              BNE      |L16.158|
;;;352            Offset = 0;
;;;353            Block += USBD_MSC_BlockGroup;
000096  62a5              STR      r5,[r4,#0x28]  ; Offset
000098  6a60              LDR      r0,[r4,#0x24]  ; Block
00009a  1840              ADDS     r0,r0,r1
00009c  6260              STR      r0,[r4,#0x24]  ; Block
                  |L16.158|
;;;354        }
;;;355    
;;;356        USBD_MSC_CSW.dDataResidue -= BulkLen;
00009e  4915              LDR      r1,|L16.244|
0000a0  2008              MOVS     r0,#8
0000a2  180a              ADDS     r2,r1,r0
0000a4  7815              LDRB     r5,[r2,#0]  ; USBD_MSC_CSW
0000a6  4628              MOV      r0,r5
0000a8  7855              LDRB     r5,[r2,#1]  ; USBD_MSC_CSW
0000aa  022d              LSLS     r5,r5,#8
0000ac  4328              ORRS     r0,r0,r5
0000ae  7895              LDRB     r5,[r2,#2]  ; USBD_MSC_CSW
0000b0  78d2              LDRB     r2,[r2,#3]  ; USBD_MSC_CSW
0000b2  042d              LSLS     r5,r5,#16
0000b4  4328              ORRS     r0,r0,r5
0000b6  0612              LSLS     r2,r2,#24
0000b8  4310              ORRS     r0,r0,r2
0000ba  1ac0              SUBS     r0,r0,r3
0000bc  7208              STRB     r0,[r1,#8]
0000be  0a02              LSRS     r2,r0,#8
0000c0  724a              STRB     r2,[r1,#9]
0000c2  0c02              LSRS     r2,r0,#16
0000c4  0e00              LSRS     r0,r0,#24
0000c6  728a              STRB     r2,[r1,#0xa]
0000c8  72c8              STRB     r0,[r1,#0xb]
;;;357    
;;;358        if (!BulkLen) {
0000ca  2b00              CMP      r3,#0
0000cc  d00b              BEQ      |L16.230|
;;;359            return;
;;;360        }
;;;361    
;;;362        if ((Length == 0) || (BulkStage == MSC_BS_CSW)) {
0000ce  2e00              CMP      r6,#0
0000d0  d002              BEQ      |L16.216|
0000d2  7820              LDRB     r0,[r4,#0]  ; BulkStage
0000d4  2805              CMP      r0,#5
0000d6  d106              BNE      |L16.230|
                  |L16.216|
;;;363            USBD_MSC_CSW.bStatus = (MemOK) ? CSW_CMD_PASSED : CSW_CMD_FAILED;
0000d8  6a20              LDR      r0,[r4,#0x20]  ; MemOK
0000da  2800              CMP      r0,#0
0000dc  d004              BEQ      |L16.232|
0000de  2000              MOVS     r0,#0
                  |L16.224|
0000e0  7308              STRB     r0,[r1,#0xc]
;;;364            USBD_MSC_SetCSW();
0000e2  f7fffffe          BL       USBD_MSC_SetCSW
                  |L16.230|
;;;365        }
;;;366    }
0000e6  bdf8              POP      {r3-r7,pc}
                  |L16.232|
0000e8  2001              MOVS     r0,#1                 ;363
0000ea  e7f9              B        |L16.224|
;;;367    
                          ENDP

                  |L16.236|
                          DCD      ||.data||
                  |L16.240|
                          DCD      usbd_msc_ep_bulkout
                  |L16.244|
                          DCD      ||.bss||+0x1f
                  |L16.248|
                          DCD      ||.bss||
                  |L16.252|
                          DCD      USBD_MSC_BulkBuf

                          AREA ||i.USBD_MSC_MemoryWrite||, CODE, READONLY, ALIGN=2

                  USBD_MSC_MemoryWrite PROC
;;;247    
;;;248    void USBD_MSC_MemoryWrite(void)
000000  b5f8              PUSH     {r3-r7,lr}
;;;249    {
;;;250        U32 n;
;;;251    
;;;252        if (Block >= USBD_MSC_BlockCount) {
000002  4d40              LDR      r5,|L17.260|
000004  2400              MOVS     r4,#0
000006  69a9              LDR      r1,[r5,#0x18]  ; USBD_MSC_BlockCount
000008  6a68              LDR      r0,[r5,#0x24]  ; Block
00000a  4288              CMP      r0,r1
00000c  d308              BCC      |L17.32|
;;;253            BulkLen = 0;
;;;254            USBD_MSC_SetStallEP(usbd_msc_ep_bulkout);
00000e  483e              LDR      r0,|L17.264|
000010  632c              STR      r4,[r5,#0x30]  ; BulkLen
000012  7800              LDRB     r0,[r0,#0]  ; usbd_msc_ep_bulkout
000014  f7fffffe          BL       USBD_MSC_SetStallEP
;;;255            USBD_MSC_CSW.bStatus = CSW_CMD_PASSED;
000018  483c              LDR      r0,|L17.268|
00001a  7304              STRB     r4,[r0,#0xc]
;;;256            USBD_MSC_SetCSW();
00001c  f7fffffe          BL       USBD_MSC_SetCSW
                  |L17.32|
;;;257        }
;;;258    
;;;259        if (!USBD_MSC_CheckMedia()) {
000020  f7fffffe          BL       USBD_MSC_CheckMedia
000024  2800              CMP      r0,#0
000026  d100              BNE      |L17.42|
;;;260            BulkLen = 0;
000028  632c              STR      r4,[r5,#0x30]  ; BulkLen
                  |L17.42|
;;;261        }
;;;262    
;;;263        if (Offset + BulkLen > USBD_MSC_BlockSize) {
00002a  6b29              LDR      r1,[r5,#0x30]  ; BulkLen
00002c  6aa8              LDR      r0,[r5,#0x28]  ; Offset
00002e  692a              LDR      r2,[r5,#0x10]  ; USBD_MSC_BlockSize
000030  1840              ADDS     r0,r0,r1
000032  4290              CMP      r0,r2
000034  d906              BLS      |L17.68|
;;;264            // This write would have overflowed USBD_MSC_BlockBuf
;;;265            util_assert(0);
000036  22ff              MOVS     r2,#0xff
000038  320a              ADDS     r2,r2,#0xa
00003a  a135              ADR      r1,|L17.272|
00003c  2000              MOVS     r0,#0
00003e  f7fffffe          BL       _util_assert
                  |L17.66|
;;;266            return;
;;;267        }
;;;268    
;;;269        for (n = 0; n < BulkLen; n++) {
;;;270            USBD_MSC_BlockBuf[Offset + n] = USBD_MSC_BulkBuf[n];
;;;271        }
;;;272    
;;;273        Offset += BulkLen;
;;;274        Length -= BulkLen;
;;;275    
;;;276        if (BulkLen) {
;;;277            if ((Length == 0) && (Offset != 0)) {
;;;278                n = (Offset + (USBD_MSC_BlockSize - 1)) / USBD_MSC_BlockSize;
;;;279    
;;;280                if (n > USBD_MSC_BlockGroup) {
;;;281                    n = USBD_MSC_BlockGroup;
;;;282                }
;;;283    
;;;284                usbd_msc_write_sect(Block, USBD_MSC_BlockBuf, n, USBD_MSC_CBW.bLUN);
;;;285                Offset = 0;
;;;286                Block += n;
;;;287            } else if (Offset == USBD_MSC_BlockGroup * USBD_MSC_BlockSize) {
;;;288                usbd_msc_write_sect(Block, USBD_MSC_BlockBuf, USBD_MSC_BlockGroup, USBD_MSC_CBW.bLUN);
;;;289                Offset = 0;
;;;290                Block += USBD_MSC_BlockGroup;
;;;291            }
;;;292        }
;;;293    
;;;294        USBD_MSC_CSW.dDataResidue -= BulkLen;
;;;295    
;;;296        if (!BulkLen) {
;;;297            return;
;;;298        }
;;;299    
;;;300        if ((Length == 0) || (BulkStage == MSC_BS_CSW)) {
;;;301            USBD_MSC_CSW.bStatus = CSW_CMD_PASSED;
;;;302            USBD_MSC_SetCSW();
;;;303        }
;;;304    }
000042  bdf8              POP      {r3-r7,pc}
                  |L17.68|
000044  2000              MOVS     r0,#0                 ;269
000046  2900              CMP      r1,#0                 ;269
000048  d909              BLS      |L17.94|
00004a  4e3a              LDR      r6,|L17.308|
00004c  69eb              LDR      r3,[r5,#0x1c]         ;270
                  |L17.78|
00004e  6aaa              LDR      r2,[r5,#0x28]         ;270  ; Offset
000050  5c31              LDRB     r1,[r6,r0]            ;270
000052  1812              ADDS     r2,r2,r0              ;270
000054  5499              STRB     r1,[r3,r2]            ;270
000056  6b29              LDR      r1,[r5,#0x30]         ;269  ; BulkLen
000058  1c40              ADDS     r0,r0,#1              ;269
00005a  4288              CMP      r0,r1                 ;269
00005c  d3f7              BCC      |L17.78|
                  |L17.94|
00005e  6aa8              LDR      r0,[r5,#0x28]         ;273  ; Offset
000060  1840              ADDS     r0,r0,r1              ;273
000062  62a8              STR      r0,[r5,#0x28]         ;274  ; Offset
000064  6aea              LDR      r2,[r5,#0x2c]         ;274  ; Length
000066  1a52              SUBS     r2,r2,r1              ;274
000068  62ea              STR      r2,[r5,#0x2c]         ;276  ; Length
00006a  2900              CMP      r1,#0                 ;276
00006c  d027              BEQ      |L17.190|
00006e  4f32              LDR      r7,|L17.312|
000070  2a00              CMP      r2,#0                 ;277
000072  d115              BNE      |L17.160|
000074  2800              CMP      r0,#0                 ;277
000076  d013              BEQ      |L17.160|
000078  6929              LDR      r1,[r5,#0x10]         ;278  ; USBD_MSC_BlockSize
00007a  1840              ADDS     r0,r0,r1              ;278
00007c  1e40              SUBS     r0,r0,#1              ;278
00007e  f7fffffe          BL       __aeabi_uidivmod
000082  6969              LDR      r1,[r5,#0x14]         ;280  ; USBD_MSC_BlockGroup
000084  4606              MOV      r6,r0                 ;278
000086  4288              CMP      r0,r1                 ;280
000088  d900              BLS      |L17.140|
00008a  460e              MOV      r6,r1                 ;281
                  |L17.140|
00008c  7b7b              LDRB     r3,[r7,#0xd]          ;284  ; USBD_MSC_CBW
00008e  4632              MOV      r2,r6                 ;284
000090  69e9              LDR      r1,[r5,#0x1c]         ;284  ; USBD_MSC_BlockBuf
000092  6a68              LDR      r0,[r5,#0x24]         ;284  ; Block
000094  f7fffffe          BL       usbd_msc_write_sect
000098  62ac              STR      r4,[r5,#0x28]         ;286  ; Offset
00009a  6a68              LDR      r0,[r5,#0x24]         ;286  ; Block
00009c  1980              ADDS     r0,r0,r6              ;286
00009e  e00d              B        |L17.188|
                  |L17.160|
0000a0  696a              LDR      r2,[r5,#0x14]         ;287  ; USBD_MSC_BlockGroup
0000a2  6929              LDR      r1,[r5,#0x10]         ;287  ; USBD_MSC_BlockSize
0000a4  4351              MULS     r1,r2,r1              ;287
0000a6  4281              CMP      r1,r0                 ;287
0000a8  d109              BNE      |L17.190|
0000aa  7b7b              LDRB     r3,[r7,#0xd]          ;288  ; USBD_MSC_CBW
0000ac  69e9              LDR      r1,[r5,#0x1c]         ;288  ; USBD_MSC_BlockBuf
0000ae  6a68              LDR      r0,[r5,#0x24]         ;288  ; Block
0000b0  f7fffffe          BL       usbd_msc_write_sect
0000b4  62ac              STR      r4,[r5,#0x28]         ;290  ; Offset
0000b6  6969              LDR      r1,[r5,#0x14]         ;290  ; USBD_MSC_BlockGroup
0000b8  6a68              LDR      r0,[r5,#0x24]         ;290  ; Block
0000ba  1840              ADDS     r0,r0,r1              ;290
                  |L17.188|
0000bc  6268              STR      r0,[r5,#0x24]         ;290  ; Block
                  |L17.190|
0000be  4913              LDR      r1,|L17.268|
0000c0  2008              MOVS     r0,#8                 ;294
0000c2  180a              ADDS     r2,r1,r0              ;294
0000c4  7813              LDRB     r3,[r2,#0]            ;294  ; USBD_MSC_CSW
0000c6  4618              MOV      r0,r3                 ;294
0000c8  7853              LDRB     r3,[r2,#1]            ;294  ; USBD_MSC_CSW
0000ca  021b              LSLS     r3,r3,#8              ;294
0000cc  4318              ORRS     r0,r0,r3              ;294
0000ce  7893              LDRB     r3,[r2,#2]            ;294  ; USBD_MSC_CSW
0000d0  78d2              LDRB     r2,[r2,#3]            ;294  ; USBD_MSC_CSW
0000d2  041b              LSLS     r3,r3,#16             ;294
0000d4  4318              ORRS     r0,r0,r3              ;294
0000d6  0612              LSLS     r2,r2,#24             ;294
0000d8  4310              ORRS     r0,r0,r2              ;294
0000da  6b2a              LDR      r2,[r5,#0x30]         ;294  ; BulkLen
0000dc  1a80              SUBS     r0,r0,r2              ;294
0000de  7208              STRB     r0,[r1,#8]            ;294
0000e0  0a03              LSRS     r3,r0,#8              ;294
0000e2  724b              STRB     r3,[r1,#9]            ;294
0000e4  0c03              LSRS     r3,r0,#16             ;294
0000e6  0e00              LSRS     r0,r0,#24             ;294
0000e8  728b              STRB     r3,[r1,#0xa]          ;294
0000ea  72c8              STRB     r0,[r1,#0xb]          ;294
0000ec  2a00              CMP      r2,#0                 ;296
0000ee  d0a8              BEQ      |L17.66|
0000f0  6ae8              LDR      r0,[r5,#0x2c]         ;300  ; Length
0000f2  2800              CMP      r0,#0                 ;300
0000f4  d002              BEQ      |L17.252|
0000f6  7828              LDRB     r0,[r5,#0]            ;300  ; BulkStage
0000f8  2805              CMP      r0,#5                 ;300
0000fa  d1a2              BNE      |L17.66|
                  |L17.252|
0000fc  730c              STRB     r4,[r1,#0xc]          ;301
0000fe  f7fffffe          BL       USBD_MSC_SetCSW
000102  bdf8              POP      {r3-r7,pc}
;;;305    
                          ENDP

                  |L17.260|
                          DCD      ||.data||
                  |L17.264|
                          DCD      usbd_msc_ep_bulkout
                  |L17.268|
                          DCD      ||.bss||+0x1f
                  |L17.272|
000110  2e2e5c2e          DCB      "..\\..\\..\\source\\usb\\msc\\usbd_msc.c",0
000114  2e5c2e2e
000118  5c736f75
00011c  7263655c
000120  7573625c
000124  6d73635c
000128  75736264
00012c  5f6d7363
000130  2e6300  
000133  00                DCB      0
                  |L17.308|
                          DCD      USBD_MSC_BulkBuf
                  |L17.312|
                          DCD      ||.bss||

                          AREA ||i.USBD_MSC_ModeSense10||, CODE, READONLY, ALIGN=2

                  USBD_MSC_ModeSense10 PROC
;;;680    
;;;681    void USBD_MSC_ModeSense10(void)
000000  b510              PUSH     {r4,lr}
;;;682    {
;;;683        if (!USBD_MSC_DataInFormat()) {
000002  f7fffffe          BL       USBD_MSC_DataInFormat
000006  2800              CMP      r0,#0
000008  d033              BEQ      |L18.114|
;;;684            return;
;;;685        }
;;;686    
;;;687        if (!USBD_MSC_CheckMedia()) {
00000a  f7fffffe          BL       USBD_MSC_CheckMedia
00000e  2800              CMP      r0,#0
000010  d02f              BEQ      |L18.114|
;;;688            return;
;;;689        }
;;;690    
;;;691        USBD_MSC_BulkBuf[ 0] = 0x00;
000012  4818              LDR      r0,|L18.116|
000014  2100              MOVS     r1,#0
000016  7001              STRB     r1,[r0,#0]
;;;692        USBD_MSC_BulkBuf[ 1] = 0x06;
000018  2206              MOVS     r2,#6
00001a  7042              STRB     r2,[r0,#1]
;;;693        USBD_MSC_BulkBuf[ 2] = 0x00;
;;;694        USBD_MSC_BulkBuf[ 3] = (USBD_MSC_ReadOnly << 7);
00001c  4b16              LDR      r3,|L18.120|
00001e  7081              STRB     r1,[r0,#2]            ;693
000020  7a1a              LDRB     r2,[r3,#8]  ; USBD_MSC_ReadOnly
000022  01d2              LSLS     r2,r2,#7
000024  70c2              STRB     r2,[r0,#3]
;;;695        USBD_MSC_BulkBuf[ 4] = 0x00;
000026  7101              STRB     r1,[r0,#4]
;;;696        USBD_MSC_BulkBuf[ 5] = 0x00;
000028  7141              STRB     r1,[r0,#5]
;;;697        USBD_MSC_BulkBuf[ 6] = 0x00;
00002a  7181              STRB     r1,[r0,#6]
;;;698        USBD_MSC_BulkBuf[ 7] = 0x00;
00002c  71c1              STRB     r1,[r0,#7]
;;;699        BulkLen = 8;
00002e  2108              MOVS     r1,#8
;;;700    
;;;701        /* Win host requests maximum number of bytes but as all we have is 8 bytes we have
;;;702           to tell host back that it is all we have, that's why we correct residue */
;;;703        if (USBD_MSC_CSW.dDataResidue > BulkLen) {
000030  4a12              LDR      r2,|L18.124|
000032  6319              STR      r1,[r3,#0x30]  ; BulkLen
000034  1853              ADDS     r3,r2,r1
000036  781c              LDRB     r4,[r3,#0]  ; USBD_MSC_CSW
000038  4620              MOV      r0,r4
00003a  785c              LDRB     r4,[r3,#1]  ; USBD_MSC_CSW
00003c  0224              LSLS     r4,r4,#8
00003e  4320              ORRS     r0,r0,r4
000040  789c              LDRB     r4,[r3,#2]  ; USBD_MSC_CSW
000042  78db              LDRB     r3,[r3,#3]  ; USBD_MSC_CSW
000044  0424              LSLS     r4,r4,#16
000046  4320              ORRS     r0,r0,r4
000048  061b              LSLS     r3,r3,#24
00004a  4318              ORRS     r0,r0,r3
00004c  2808              CMP      r0,#8
00004e  d90e              BLS      |L18.110|
;;;704            USBD_MSC_CBW.dDataLength  = BulkLen;
000050  480b              LDR      r0,|L18.128|
000052  0a0b              LSRS     r3,r1,#8
000054  7201              STRB     r1,[r0,#8]
000056  7243              STRB     r3,[r0,#9]
000058  0c0b              LSRS     r3,r1,#16
00005a  7283              STRB     r3,[r0,#0xa]
00005c  0e0b              LSRS     r3,r1,#24
00005e  72c3              STRB     r3,[r0,#0xb]
;;;705            USBD_MSC_CSW.dDataResidue = BulkLen;
000060  7211              STRB     r1,[r2,#8]
000062  0a08              LSRS     r0,r1,#8
000064  7250              STRB     r0,[r2,#9]
000066  0c08              LSRS     r0,r1,#16
000068  7290              STRB     r0,[r2,#0xa]
00006a  0e08              LSRS     r0,r1,#24
00006c  72d0              STRB     r0,[r2,#0xb]
                  |L18.110|
;;;706        }
;;;707    
;;;708        USBD_MSC_DataInTransfer();
00006e  f7fffffe          BL       USBD_MSC_DataInTransfer
                  |L18.114|
;;;709    }
000072  bd10              POP      {r4,pc}
;;;710    
                          ENDP

                  |L18.116|
                          DCD      USBD_MSC_BulkBuf
                  |L18.120|
                          DCD      ||.data||
                  |L18.124|
                          DCD      ||.bss||+0x1f
                  |L18.128|
                          DCD      ||.bss||

                          AREA ||i.USBD_MSC_ModeSense6||, CODE, READONLY, ALIGN=2

                  USBD_MSC_ModeSense6 PROC
;;;647    
;;;648    void USBD_MSC_ModeSense6(void)
000000  b510              PUSH     {r4,lr}
;;;649    {
;;;650        if (!USBD_MSC_DataInFormat()) {
000002  f7fffffe          BL       USBD_MSC_DataInFormat
000006  2800              CMP      r0,#0
000008  d030              BEQ      |L19.108|
;;;651            return;
;;;652        }
;;;653    
;;;654        if (!USBD_MSC_CheckMedia()) {
00000a  f7fffffe          BL       USBD_MSC_CheckMedia
00000e  2800              CMP      r0,#0
000010  d02c              BEQ      |L19.108|
;;;655            return;
;;;656        }
;;;657    
;;;658        USBD_MSC_BulkBuf[ 0] = 0x03;
000012  4817              LDR      r0,|L19.112|
000014  2103              MOVS     r1,#3
000016  7001              STRB     r1,[r0,#0]
;;;659        USBD_MSC_BulkBuf[ 1] = 0x00;
000018  2100              MOVS     r1,#0
;;;660        USBD_MSC_BulkBuf[ 2] = (USBD_MSC_ReadOnly << 7);
00001a  4b16              LDR      r3,|L19.116|
00001c  7041              STRB     r1,[r0,#1]            ;659
00001e  7a1a              LDRB     r2,[r3,#8]  ; USBD_MSC_ReadOnly
000020  01d2              LSLS     r2,r2,#7
000022  7082              STRB     r2,[r0,#2]
;;;661        USBD_MSC_BulkBuf[ 3] = 0x00;
000024  70c1              STRB     r1,[r0,#3]
;;;662        BulkLen = 4;
000026  2104              MOVS     r1,#4
;;;663    
;;;664        /* Win host requests maximum number of bytes but as all we have is 4 bytes we have
;;;665           to tell host back that it is all we have, that's why we correct residue */
;;;666        if (USBD_MSC_CSW.dDataResidue > BulkLen) {
000028  4a13              LDR      r2,|L19.120|
00002a  2008              MOVS     r0,#8
00002c  6319              STR      r1,[r3,#0x30]  ; BulkLen
00002e  1813              ADDS     r3,r2,r0
000030  781c              LDRB     r4,[r3,#0]  ; USBD_MSC_CSW
000032  4620              MOV      r0,r4
000034  785c              LDRB     r4,[r3,#1]  ; USBD_MSC_CSW
000036  0224              LSLS     r4,r4,#8
000038  4320              ORRS     r0,r0,r4
00003a  789c              LDRB     r4,[r3,#2]  ; USBD_MSC_CSW
00003c  78db              LDRB     r3,[r3,#3]  ; USBD_MSC_CSW
00003e  0424              LSLS     r4,r4,#16
000040  4320              ORRS     r0,r0,r4
000042  061b              LSLS     r3,r3,#24
000044  4318              ORRS     r0,r0,r3
000046  2804              CMP      r0,#4
000048  d90e              BLS      |L19.104|
;;;667            USBD_MSC_CBW.dDataLength  = BulkLen;
00004a  480c              LDR      r0,|L19.124|
00004c  0a0b              LSRS     r3,r1,#8
00004e  7201              STRB     r1,[r0,#8]
000050  7243              STRB     r3,[r0,#9]
000052  0c0b              LSRS     r3,r1,#16
000054  7283              STRB     r3,[r0,#0xa]
000056  0e0b              LSRS     r3,r1,#24
000058  72c3              STRB     r3,[r0,#0xb]
;;;668            USBD_MSC_CSW.dDataResidue = BulkLen;
00005a  7211              STRB     r1,[r2,#8]
00005c  0a08              LSRS     r0,r1,#8
00005e  7250              STRB     r0,[r2,#9]
000060  0c08              LSRS     r0,r1,#16
000062  7290              STRB     r0,[r2,#0xa]
000064  0e08              LSRS     r0,r1,#24
000066  72d0              STRB     r0,[r2,#0xb]
                  |L19.104|
;;;669        }
;;;670    
;;;671        USBD_MSC_DataInTransfer();
000068  f7fffffe          BL       USBD_MSC_DataInTransfer
                  |L19.108|
;;;672    }
00006c  bd10              POP      {r4,pc}
;;;673    
                          ENDP

00006e  0000              DCW      0x0000
                  |L19.112|
                          DCD      USBD_MSC_BulkBuf
                  |L19.116|
                          DCD      ||.data||
                  |L19.120|
                          DCD      ||.bss||+0x1f
                  |L19.124|
                          DCD      ||.bss||

                          AREA ||i.USBD_MSC_RWSetup||, CODE, READONLY, ALIGN=2

                  USBD_MSC_RWSetup PROC
;;;374    
;;;375    BOOL USBD_MSC_RWSetup(void)
000000  b570              PUSH     {r4-r6,lr}
;;;376    {
;;;377        U32 n;
;;;378        /* Logical Block Address of First Block */
;;;379        n = (USBD_MSC_CBW.CB[2] << 24) |
000002  4d37              LDR      r5,|L20.224|
000004  2010              MOVS     r0,#0x10
000006  1829              ADDS     r1,r5,r0
000008  780a              LDRB     r2,[r1,#0]  ; USBD_MSC_CBW
00000a  4c36              LDR      r4,|L20.228|
00000c  4610              MOV      r0,r2
00000e  784a              LDRB     r2,[r1,#1]  ; USBD_MSC_CBW
;;;380            (USBD_MSC_CBW.CB[3] << 16) |
;;;381            (USBD_MSC_CBW.CB[4] <<  8) |
;;;382            (USBD_MSC_CBW.CB[5] <<  0);
;;;383        Block  = n;
000010  4e35              LDR      r6,|L20.232|
000012  0212              LSLS     r2,r2,#8              ;379
000014  4310              ORRS     r0,r0,r2              ;379
000016  788a              LDRB     r2,[r1,#2]            ;379  ; USBD_MSC_CBW
000018  78c9              LDRB     r1,[r1,#3]            ;379  ; USBD_MSC_CBW
00001a  0412              LSLS     r2,r2,#16             ;379
00001c  4310              ORRS     r0,r0,r2              ;379
00001e  0609              LSLS     r1,r1,#24             ;379
000020  4308              ORRS     r0,r0,r1              ;379
000022  ba00              REV      r0,r0                 ;379
000024  0a01              LSRS     r1,r0,#8              ;379
000026  7d20              LDRB     r0,[r4,#0x14]         ;379  ; USBD_MSC_CBW
000028  0209              LSLS     r1,r1,#8              ;379
00002a  4301              ORRS     r1,r1,r0              ;379
;;;384        Offset = 0;
00002c  2000              MOVS     r0,#0
;;;385    
;;;386        /* Number of Blocks to transfer */
;;;387        switch (USBD_MSC_CBW.CB[0]) {
00002e  6271              STR      r1,[r6,#0x24]  ; Block
000030  62b0              STR      r0,[r6,#0x28]  ; Offset
000032  7be0              LDRB     r0,[r4,#0xf]  ; USBD_MSC_CBW
000034  282f              CMP      r0,#0x2f
000036  d00a              BEQ      |L20.78|
000038  dc04              BGT      |L20.68|
00003a  2828              CMP      r0,#0x28
00003c  d00b              BEQ      |L20.86|
00003e  282a              CMP      r0,#0x2a
000040  d125              BNE      |L20.142|
000042  e004              B        |L20.78|
                  |L20.68|
000044  28a8              CMP      r0,#0xa8
000046  d010              BEQ      |L20.106|
000048  28aa              CMP      r0,#0xaa
00004a  d120              BNE      |L20.142|
00004c  e009              B        |L20.98|
                  |L20.78|
;;;388            case SCSI_WRITE10:
;;;389            case SCSI_VERIFY10:
;;;390                if (!USBD_MSC_CheckMedia()) {
00004e  f7fffffe          BL       USBD_MSC_CheckMedia
000052  2800              CMP      r0,#0
000054  d041              BEQ      |L20.218|
                  |L20.86|
;;;391                    return (__FALSE);
;;;392                }
;;;393    
;;;394            case SCSI_READ10:
;;;395                n = (USBD_MSC_CBW.CB[7] <<  8) |
000056  7de0              LDRB     r0,[r4,#0x17]  ; USBD_MSC_CBW
000058  7da1              LDRB     r1,[r4,#0x16]  ; USBD_MSC_CBW
00005a  0200              LSLS     r0,r0,#8
00005c  4308              ORRS     r0,r0,r1
00005e  ba41              REV16    r1,r0
;;;396                    (USBD_MSC_CBW.CB[8] <<  0);
;;;397                break;
000060  e015              B        |L20.142|
                  |L20.98|
;;;398    
;;;399            case SCSI_WRITE12:
;;;400                if (!USBD_MSC_CheckMedia()) {
000062  f7fffffe          BL       USBD_MSC_CheckMedia
000066  2800              CMP      r0,#0
000068  d037              BEQ      |L20.218|
                  |L20.106|
;;;401                    return (__FALSE);
;;;402                }
;;;403    
;;;404            case SCSI_READ12:
;;;405                n = (USBD_MSC_CBW.CB[6] << 24) |
00006a  2014              MOVS     r0,#0x14
00006c  1829              ADDS     r1,r5,r0
00006e  780a              LDRB     r2,[r1,#0]  ; USBD_MSC_CBW
000070  4610              MOV      r0,r2
000072  784a              LDRB     r2,[r1,#1]  ; USBD_MSC_CBW
000074  0212              LSLS     r2,r2,#8
000076  4310              ORRS     r0,r0,r2
000078  788a              LDRB     r2,[r1,#2]  ; USBD_MSC_CBW
00007a  78c9              LDRB     r1,[r1,#3]  ; USBD_MSC_CBW
00007c  0412              LSLS     r2,r2,#16
00007e  4310              ORRS     r0,r0,r2
000080  0609              LSLS     r1,r1,#24
000082  4308              ORRS     r0,r0,r1
000084  ba00              REV      r0,r0
000086  0a01              LSRS     r1,r0,#8
000088  7e20              LDRB     r0,[r4,#0x18]  ; USBD_MSC_CBW
00008a  0209              LSLS     r1,r1,#8
00008c  4301              ORRS     r1,r1,r0
                  |L20.142|
;;;406                    (USBD_MSC_CBW.CB[7] << 16) |
;;;407                    (USBD_MSC_CBW.CB[8] <<  8) |
;;;408                    (USBD_MSC_CBW.CB[9] <<  0);
;;;409                break;
;;;410        }
;;;411    
;;;412        Length = n * USBD_MSC_BlockSize;
00008e  6930              LDR      r0,[r6,#0x10]  ; USBD_MSC_BlockSize
;;;413    
;;;414        if (USBD_MSC_CBW.dDataLength == 0) {     /* host requests no data */
;;;415            USBD_MSC_CSW.bStatus = CSW_CMD_FAILED;
000090  2501              MOVS     r5,#1
000092  4341              MULS     r1,r0,r1              ;412
000094  2008              MOVS     r0,#8                 ;414
000096  1822              ADDS     r2,r4,r0              ;414
000098  62f1              STR      r1,[r6,#0x2c]         ;414  ; Length
00009a  7813              LDRB     r3,[r2,#0]            ;414  ; USBD_MSC_CBW
00009c  4e13              LDR      r6,|L20.236|
00009e  4618              MOV      r0,r3                 ;414
0000a0  7853              LDRB     r3,[r2,#1]            ;414  ; USBD_MSC_CBW
0000a2  021b              LSLS     r3,r3,#8              ;414
0000a4  4318              ORRS     r0,r0,r3              ;414
0000a6  7893              LDRB     r3,[r2,#2]            ;414  ; USBD_MSC_CBW
0000a8  78d2              LDRB     r2,[r2,#3]            ;414  ; USBD_MSC_CBW
0000aa  041b              LSLS     r3,r3,#16             ;414
0000ac  4318              ORRS     r0,r0,r3              ;414
0000ae  0612              LSLS     r2,r2,#24             ;414
0000b0  4310              ORRS     r0,r0,r2              ;414
0000b2  2800              CMP      r0,#0                 ;414
0000b4  d00d              BEQ      |L20.210|
;;;416            USBD_MSC_SetCSW();
;;;417            return (__FALSE);
;;;418        }
;;;419    
;;;420        if (USBD_MSC_CBW.dDataLength != Length) {
0000b6  4288              CMP      r0,r1
0000b8  d010              BEQ      |L20.220|
;;;421            if ((USBD_MSC_CBW.bmFlags & 0x80) != 0) {  /* stall appropriate EP */
0000ba  7b20              LDRB     r0,[r4,#0xc]  ; USBD_MSC_CBW
0000bc  0600              LSLS     r0,r0,#24
0000be  d504              BPL      |L20.202|
;;;422                USBD_MSC_SetStallEP(usbd_msc_ep_bulkin | 0x80);
0000c0  480b              LDR      r0,|L20.240|
0000c2  2180              MOVS     r1,#0x80
0000c4  7800              LDRB     r0,[r0,#0]  ; usbd_msc_ep_bulkin
0000c6  4308              ORRS     r0,r0,r1
0000c8  e001              B        |L20.206|
                  |L20.202|
;;;423            } else {
;;;424                USBD_MSC_SetStallEP(usbd_msc_ep_bulkout);
0000ca  480a              LDR      r0,|L20.244|
0000cc  7800              LDRB     r0,[r0,#0]  ; usbd_msc_ep_bulkout
                  |L20.206|
0000ce  f7fffffe          BL       USBD_MSC_SetStallEP
                  |L20.210|
;;;425            }
;;;426    
;;;427            USBD_MSC_CSW.bStatus = CSW_CMD_FAILED;
0000d2  7335              STRB     r5,[r6,#0xc]
;;;428            USBD_MSC_SetCSW();
0000d4  f7fffffe          BL       USBD_MSC_SetCSW
;;;429            return (__FALSE);
0000d8  2000              MOVS     r0,#0
                  |L20.218|
;;;430        }
;;;431    
;;;432        return (__TRUE);
;;;433    }
0000da  bd70              POP      {r4-r6,pc}
                  |L20.220|
0000dc  2001              MOVS     r0,#1                 ;432
0000de  bd70              POP      {r4-r6,pc}
;;;434    
                          ENDP

                  |L20.224|
                          DCD      ||.bss||+0x1
                  |L20.228|
                          DCD      ||.bss||
                  |L20.232|
                          DCD      ||.data||
                  |L20.236|
                          DCD      ||.bss||+0x1f
                  |L20.240|
                          DCD      usbd_msc_ep_bulkin
                  |L20.244|
                          DCD      usbd_msc_ep_bulkout

                          AREA ||i.USBD_MSC_ReadCapacity||, CODE, READONLY, ALIGN=2

                  USBD_MSC_ReadCapacity PROC
;;;717    
;;;718    void USBD_MSC_ReadCapacity(void)
000000  b510              PUSH     {r4,lr}
;;;719    {
;;;720        if (!USBD_MSC_DataInFormat()) {
000002  f7fffffe          BL       USBD_MSC_DataInFormat
000006  2800              CMP      r0,#0
000008  d01a              BEQ      |L21.64|
;;;721            return;
;;;722        }
;;;723    
;;;724        if (!USBD_MSC_CheckMedia()) {
00000a  f7fffffe          BL       USBD_MSC_CheckMedia
00000e  2800              CMP      r0,#0
000010  d016              BEQ      |L21.64|
;;;725            return;
;;;726        }
;;;727    
;;;728        /* Last Logical Block */
;;;729        USBD_MSC_BulkBuf[ 0] = ((USBD_MSC_BlockCount - 1) >> 24) & 0xFF;
000012  4a0c              LDR      r2,|L21.68|
000014  490c              LDR      r1,|L21.72|
000016  6990              LDR      r0,[r2,#0x18]  ; USBD_MSC_BlockCount
000018  1e40              SUBS     r0,r0,#1
00001a  0e03              LSRS     r3,r0,#24
00001c  700b              STRB     r3,[r1,#0]
;;;730        USBD_MSC_BulkBuf[ 1] = ((USBD_MSC_BlockCount - 1) >> 16) & 0xFF;
00001e  0c03              LSRS     r3,r0,#16
000020  704b              STRB     r3,[r1,#1]
;;;731        USBD_MSC_BulkBuf[ 2] = ((USBD_MSC_BlockCount - 1) >>  8) & 0xFF;
000022  0a03              LSRS     r3,r0,#8
000024  708b              STRB     r3,[r1,#2]
;;;732        USBD_MSC_BulkBuf[ 3] = ((USBD_MSC_BlockCount - 1) >>  0) & 0xFF;
000026  70c8              STRB     r0,[r1,#3]
;;;733        /* Block Length */
;;;734        USBD_MSC_BulkBuf[ 4] = (USBD_MSC_BlockSize        >> 24) & 0xFF;
000028  6910              LDR      r0,[r2,#0x10]  ; USBD_MSC_BlockSize
00002a  0e03              LSRS     r3,r0,#24
00002c  710b              STRB     r3,[r1,#4]
;;;735        USBD_MSC_BulkBuf[ 5] = (USBD_MSC_BlockSize        >> 16) & 0xFF;
00002e  0c03              LSRS     r3,r0,#16
000030  714b              STRB     r3,[r1,#5]
;;;736        USBD_MSC_BulkBuf[ 6] = (USBD_MSC_BlockSize        >>  8) & 0xFF;
000032  0a03              LSRS     r3,r0,#8
000034  718b              STRB     r3,[r1,#6]
;;;737        USBD_MSC_BulkBuf[ 7] = (USBD_MSC_BlockSize        >>  0) & 0xFF;
000036  71c8              STRB     r0,[r1,#7]
;;;738        BulkLen = 8;
000038  2008              MOVS     r0,#8
;;;739        USBD_MSC_DataInTransfer();
00003a  6310              STR      r0,[r2,#0x30]  ; BulkLen
00003c  f7fffffe          BL       USBD_MSC_DataInTransfer
                  |L21.64|
;;;740    }
000040  bd10              POP      {r4,pc}
;;;741    
                          ENDP

000042  0000              DCW      0x0000
                  |L21.68|
                          DCD      ||.data||
                  |L21.72|
                          DCD      USBD_MSC_BulkBuf

                          AREA ||i.USBD_MSC_ReadFormatCapacity||, CODE, READONLY, ALIGN=2

                  USBD_MSC_ReadFormatCapacity PROC
;;;748    
;;;749    void USBD_MSC_ReadFormatCapacity(void)
000000  b510              PUSH     {r4,lr}
;;;750    {
;;;751        if (!USBD_MSC_DataInFormat()) {
000002  f7fffffe          BL       USBD_MSC_DataInFormat
000006  2800              CMP      r0,#0
000008  d03e              BEQ      |L22.136|
;;;752            return;
;;;753        }
;;;754    
;;;755        if (!USBD_MSC_CheckMedia()) {
00000a  f7fffffe          BL       USBD_MSC_CheckMedia
00000e  2800              CMP      r0,#0
000010  d03a              BEQ      |L22.136|
;;;756            return;
;;;757        }
;;;758    
;;;759        USBD_MSC_BulkBuf[ 0] = 0x00;
000012  481e              LDR      r0,|L22.140|
000014  2100              MOVS     r1,#0
000016  7001              STRB     r1,[r0,#0]
;;;760        USBD_MSC_BulkBuf[ 1] = 0x00;
000018  7041              STRB     r1,[r0,#1]
;;;761        USBD_MSC_BulkBuf[ 2] = 0x00;
00001a  7081              STRB     r1,[r0,#2]
;;;762        USBD_MSC_BulkBuf[ 3] = 0x08;                      /* Capacity List Length */
00001c  2108              MOVS     r1,#8
;;;763        /* Block Count */
;;;764        USBD_MSC_BulkBuf[ 4] = (USBD_MSC_BlockCount >> 24) & 0xFF;
00001e  4a1c              LDR      r2,|L22.144|
000020  70c1              STRB     r1,[r0,#3]            ;762
000022  6991              LDR      r1,[r2,#0x18]  ; USBD_MSC_BlockCount
000024  0e0b              LSRS     r3,r1,#24
000026  7103              STRB     r3,[r0,#4]
;;;765        USBD_MSC_BulkBuf[ 5] = (USBD_MSC_BlockCount >> 16) & 0xFF;
000028  0c0b              LSRS     r3,r1,#16
00002a  7143              STRB     r3,[r0,#5]
;;;766        USBD_MSC_BulkBuf[ 6] = (USBD_MSC_BlockCount >>  8) & 0xFF;
00002c  0a0b              LSRS     r3,r1,#8
00002e  7183              STRB     r3,[r0,#6]
;;;767        USBD_MSC_BulkBuf[ 7] = (USBD_MSC_BlockCount >>  0) & 0xFF;
000030  71c1              STRB     r1,[r0,#7]
;;;768        /* Block Length */
;;;769        USBD_MSC_BulkBuf[ 8] = 0x02;                      /* Descriptor Code: Formatted Media */
000032  2102              MOVS     r1,#2
000034  7201              STRB     r1,[r0,#8]
;;;770        USBD_MSC_BulkBuf[ 9] = (USBD_MSC_BlockSize  >> 16) & 0xFF;
000036  6911              LDR      r1,[r2,#0x10]  ; USBD_MSC_BlockSize
000038  0c0b              LSRS     r3,r1,#16
00003a  7243              STRB     r3,[r0,#9]
;;;771        USBD_MSC_BulkBuf[10] = (USBD_MSC_BlockSize  >>  8) & 0xFF;
00003c  0a0b              LSRS     r3,r1,#8
00003e  7283              STRB     r3,[r0,#0xa]
;;;772        USBD_MSC_BulkBuf[11] = (USBD_MSC_BlockSize  >>  0) & 0xFF;
000040  72c1              STRB     r1,[r0,#0xb]
;;;773        BulkLen = 12;
000042  210c              MOVS     r1,#0xc
;;;774    
;;;775        /* Win host requests maximum number of bytes but as all we have is 12 bytes we have
;;;776           to tell host back that it is all we have, that's why we correct residue */
;;;777        if (USBD_MSC_CSW.dDataResidue > BulkLen) {
000044  6311              STR      r1,[r2,#0x30]  ; BulkLen
000046  4a13              LDR      r2,|L22.148|
000048  2008              MOVS     r0,#8
00004a  1813              ADDS     r3,r2,r0
00004c  781c              LDRB     r4,[r3,#0]  ; USBD_MSC_CSW
00004e  4620              MOV      r0,r4
000050  785c              LDRB     r4,[r3,#1]  ; USBD_MSC_CSW
000052  0224              LSLS     r4,r4,#8
000054  4320              ORRS     r0,r0,r4
000056  789c              LDRB     r4,[r3,#2]  ; USBD_MSC_CSW
000058  78db              LDRB     r3,[r3,#3]  ; USBD_MSC_CSW
00005a  0424              LSLS     r4,r4,#16
00005c  4320              ORRS     r0,r0,r4
00005e  061b              LSLS     r3,r3,#24
000060  4318              ORRS     r0,r0,r3
000062  280c              CMP      r0,#0xc
000064  d90e              BLS      |L22.132|
;;;778            USBD_MSC_CBW.dDataLength  = BulkLen;
000066  480c              LDR      r0,|L22.152|
000068  0a0b              LSRS     r3,r1,#8
00006a  7201              STRB     r1,[r0,#8]
00006c  7243              STRB     r3,[r0,#9]
00006e  0c0b              LSRS     r3,r1,#16
000070  7283              STRB     r3,[r0,#0xa]
000072  0e0b              LSRS     r3,r1,#24
000074  72c3              STRB     r3,[r0,#0xb]
;;;779            USBD_MSC_CSW.dDataResidue = BulkLen;
000076  7211              STRB     r1,[r2,#8]
000078  0a08              LSRS     r0,r1,#8
00007a  7250              STRB     r0,[r2,#9]
00007c  0c08              LSRS     r0,r1,#16
00007e  7290              STRB     r0,[r2,#0xa]
000080  0e08              LSRS     r0,r1,#24
000082  72d0              STRB     r0,[r2,#0xb]
                  |L22.132|
;;;780        }
;;;781    
;;;782        USBD_MSC_DataInTransfer();
000084  f7fffffe          BL       USBD_MSC_DataInTransfer
                  |L22.136|
;;;783    }
000088  bd10              POP      {r4,pc}
;;;784    
                          ENDP

00008a  0000              DCW      0x0000
                  |L22.140|
                          DCD      USBD_MSC_BulkBuf
                  |L22.144|
                          DCD      ||.data||
                  |L22.148|
                          DCD      ||.bss||+0x1f
                  |L22.152|
                          DCD      ||.bss||

                          AREA ||i.USBD_MSC_RequestSense||, CODE, READONLY, ALIGN=2

                  USBD_MSC_RequestSense PROC
;;;516    
;;;517    void USBD_MSC_RequestSense(void)
000000  b570              PUSH     {r4-r6,lr}
;;;518    {
;;;519        if (!USBD_MSC_DataInFormat()) {
000002  f7fffffe          BL       USBD_MSC_DataInFormat
000006  2800              CMP      r0,#0
000008  d02e              BEQ      |L23.104|
;;;520            return;
;;;521        }
;;;522    
;;;523        USBD_MSC_BulkBuf[ 0] = 0x70;             /* Response Code */
00000a  481c              LDR      r0,|L23.124|
00000c  2170              MOVS     r1,#0x70
00000e  7001              STRB     r1,[r0,#0]
;;;524        USBD_MSC_BulkBuf[ 1] = 0x00;
000010  2100              MOVS     r1,#0
;;;525    
;;;526        if ((USBD_MSC_MediaReadyEx ^ USBD_MSC_MediaReady) & USBD_MSC_MediaReady) {  /* If media state changed to ready */
000012  4b1b              LDR      r3,|L23.128|
000014  7041              STRB     r1,[r0,#1]            ;524
000016  685a              LDR      r2,[r3,#4]  ; USBD_MSC_MediaReady
000018  68dd              LDR      r5,[r3,#0xc]  ; USBD_MSC_MediaReadyEx
00001a  4614              MOV      r4,r2
00001c  43ac              BICS     r4,r4,r5
00001e  d006              BEQ      |L23.46|
;;;527            USBD_MSC_BulkBuf[ 2] = 0x06;           /* UNIT ATTENTION */
000020  2406              MOVS     r4,#6
000022  7084              STRB     r4,[r0,#2]
;;;528            USBD_MSC_BulkBuf[12] = 0x28;           /* Additional Sense Code: Not ready to ready transition */
000024  2428              MOVS     r4,#0x28
000026  7304              STRB     r4,[r0,#0xc]
;;;529            USBD_MSC_BulkBuf[13] = 0x00;           /* Additional Sense Code Qualifier */
000028  7341              STRB     r1,[r0,#0xd]
;;;530            USBD_MSC_MediaReadyEx = USBD_MSC_MediaReady;
00002a  60da              STR      r2,[r3,#0xc]  ; USBD_MSC_MediaReadyEx
00002c  e00a              B        |L23.68|
                  |L23.46|
;;;531        } else if (!USBD_MSC_MediaReady) {
00002e  2a00              CMP      r2,#0
000030  d01b              BEQ      |L23.106|
;;;532            USBD_MSC_BulkBuf[ 2] = 0x02;           /* NOT READY */
;;;533            USBD_MSC_BulkBuf[12] = 0x3A;           /* Additional Sense Code: Medium not present */
;;;534            USBD_MSC_BulkBuf[13] = 0x00;           /* Additional Sense Code Qualifier */
;;;535        } else {
;;;536            if (USBD_MSC_CSW.bStatus == CSW_CMD_PASSED) {
000032  4a14              LDR      r2,|L23.132|
000034  7b12              LDRB     r2,[r2,#0xc]  ; USBD_MSC_CSW
000036  2a00              CMP      r2,#0
000038  d01d              BEQ      |L23.118|
;;;537                USBD_MSC_BulkBuf[ 2] = 0x00;         /* NO SENSE */
;;;538                USBD_MSC_BulkBuf[12] = 0x00;         /* Additional Sense Code: No additional code */
;;;539                USBD_MSC_BulkBuf[13] = 0x00;         /* Additional Sense Code Qualifier */
;;;540            } else {
;;;541                USBD_MSC_BulkBuf[ 2] = 0x05;         /* ILLEGAL REQUEST */
00003a  2205              MOVS     r2,#5
00003c  7082              STRB     r2,[r0,#2]
;;;542                USBD_MSC_BulkBuf[12] = 0x20;         /* Additional Sense Code: Invalid command */
00003e  2220              MOVS     r2,#0x20
000040  7302              STRB     r2,[r0,#0xc]
                  |L23.66|
000042  7341              STRB     r1,[r0,#0xd]          ;539
                  |L23.68|
;;;543                USBD_MSC_BulkBuf[13] = 0x00;         /* Additional Sense Code Qualifier */
;;;544            }
;;;545        }
;;;546    
;;;547        USBD_MSC_BulkBuf[ 3] = 0x00;
000044  70c1              STRB     r1,[r0,#3]
;;;548        USBD_MSC_BulkBuf[ 4] = 0x00;
000046  7101              STRB     r1,[r0,#4]
;;;549        USBD_MSC_BulkBuf[ 5] = 0x00;
000048  7141              STRB     r1,[r0,#5]
;;;550        USBD_MSC_BulkBuf[ 6] = 0x00;
00004a  7181              STRB     r1,[r0,#6]
;;;551        USBD_MSC_BulkBuf[ 7] = 0x0A;             /* Additional Length */
00004c  220a              MOVS     r2,#0xa
00004e  71c2              STRB     r2,[r0,#7]
;;;552        USBD_MSC_BulkBuf[ 8] = 0x00;
000050  7201              STRB     r1,[r0,#8]
;;;553        USBD_MSC_BulkBuf[ 9] = 0x00;
000052  7241              STRB     r1,[r0,#9]
;;;554        USBD_MSC_BulkBuf[10] = 0x00;
000054  7281              STRB     r1,[r0,#0xa]
;;;555        USBD_MSC_BulkBuf[11] = 0x00;
000056  72c1              STRB     r1,[r0,#0xb]
;;;556        USBD_MSC_BulkBuf[14] = 0x00;
000058  7381              STRB     r1,[r0,#0xe]
;;;557        USBD_MSC_BulkBuf[15] = 0x00;
00005a  73c1              STRB     r1,[r0,#0xf]
;;;558        USBD_MSC_BulkBuf[16] = 0x00;
00005c  7401              STRB     r1,[r0,#0x10]
;;;559        USBD_MSC_BulkBuf[17] = 0x00;
00005e  7441              STRB     r1,[r0,#0x11]
;;;560        BulkLen = 18;
000060  2012              MOVS     r0,#0x12
;;;561        USBD_MSC_DataInTransfer();
000062  6318              STR      r0,[r3,#0x30]  ; BulkLen
000064  f7fffffe          BL       USBD_MSC_DataInTransfer
                  |L23.104|
;;;562    }
000068  bd70              POP      {r4-r6,pc}
                  |L23.106|
00006a  2202              MOVS     r2,#2                 ;532
00006c  7082              STRB     r2,[r0,#2]            ;532
00006e  223a              MOVS     r2,#0x3a              ;533
000070  7302              STRB     r2,[r0,#0xc]          ;533
000072  7341              STRB     r1,[r0,#0xd]          ;534
000074  e7e6              B        |L23.68|
                  |L23.118|
000076  7081              STRB     r1,[r0,#2]            ;537
000078  7301              STRB     r1,[r0,#0xc]          ;538
00007a  e7e2              B        |L23.66|
;;;563    
                          ENDP

                  |L23.124|
                          DCD      USBD_MSC_BulkBuf
                  |L23.128|
                          DCD      ||.data||
                  |L23.132|
                          DCD      ||.bss||+0x1f

                          AREA ||i.USBD_MSC_Reset||, CODE, READONLY, ALIGN=2

                  USBD_MSC_Reset PROC
;;;116    
;;;117    BOOL USBD_MSC_Reset(void)
000000  4906              LDR      r1,|L24.28|
;;;118    {
;;;119        USBD_EndPointStall = 0x00000000;         /* EP must stay stalled */
000002  2000              MOVS     r0,#0
;;;120        USBD_MSC_CSW.dSignature = 0;             /* invalid signature */
000004  6008              STR      r0,[r1,#0]  ; USBD_EndPointStall
000006  4906              LDR      r1,|L24.32|
000008  7008              STRB     r0,[r1,#0]
00000a  7048              STRB     r0,[r1,#1]
00000c  7088              STRB     r0,[r1,#2]
00000e  70c8              STRB     r0,[r1,#3]
;;;121        BulkStage = MSC_BS_RESET;
000010  4904              LDR      r1,|L24.36|
000012  2007              MOVS     r0,#7
000014  7008              STRB     r0,[r1,#0]
;;;122        return (__TRUE);
000016  2001              MOVS     r0,#1
;;;123    }
000018  4770              BX       lr
;;;124    
                          ENDP

00001a  0000              DCW      0x0000
                  |L24.28|
                          DCD      USBD_EndPointStall
                  |L24.32|
                          DCD      ||.bss||+0x1f
                  |L24.36|
                          DCD      ||.data||

                          AREA ||i.USBD_MSC_Reset_Event||, CODE, READONLY, ALIGN=2

                  USBD_MSC_Reset_Event PROC
;;;1125   
;;;1126   void USBD_MSC_Reset_Event(void)
000000  4905              LDR      r1,|L25.24|
000002  2000              MOVS     r0,#0
000004  6008              STR      r0,[r1,#0]  ; USBD_EndPointStall
000006  4905              LDR      r1,|L25.28|
000008  7008              STRB     r0,[r1,#0]
00000a  7048              STRB     r0,[r1,#1]
00000c  7088              STRB     r0,[r1,#2]
00000e  70c8              STRB     r0,[r1,#3]
000010  4903              LDR      r1,|L25.32|
000012  2007              MOVS     r0,#7
000014  7008              STRB     r0,[r1,#0]
;;;1127   {
;;;1128       USBD_MSC_Reset();
;;;1129   }
000016  4770              BX       lr
;;;1130   
                          ENDP

                  |L25.24|
                          DCD      USBD_EndPointStall
                  |L25.28|
                          DCD      ||.bss||+0x1f
                  |L25.32|
                          DCD      ||.data||

                          AREA ||i.USBD_MSC_ServiceActionIn16||, CODE, READONLY, ALIGN=2

                  USBD_MSC_ServiceActionIn16 PROC
;;;836    
;;;837    void USBD_MSC_ServiceActionIn16(void)
000000  b510              PUSH     {r4,lr}
;;;838    {
;;;839        if (!USBD_MSC_DataInFormat()) {
000002  f7fffffe          BL       USBD_MSC_DataInFormat
000006  2800              CMP      r0,#0
000008  d029              BEQ      |L26.94|
;;;840            return;
;;;841        }
;;;842    
;;;843        USBD_MSC_BulkBuf[ 0] = 0x20;
00000a  4815              LDR      r0,|L26.96|
00000c  2220              MOVS     r2,#0x20
00000e  7002              STRB     r2,[r0,#0]
;;;844        USBD_MSC_BulkBuf[ 1] = 0x00;
000010  2100              MOVS     r1,#0
000012  7041              STRB     r1,[r0,#1]
;;;845        USBD_MSC_BulkBuf[31] = 0x00;
000014  77c1              STRB     r1,[r0,#0x1f]
;;;846        BulkLen = 32;
000016  4c13              LDR      r4,|L26.100|
;;;847        BulkStage = MSC_BS_DATA_IN_LAST;
000018  2003              MOVS     r0,#3
00001a  6322              STR      r2,[r4,#0x30]  ; BulkLen
00001c  7020              STRB     r0,[r4,#0]
;;;848        USBD_WriteEP(usbd_msc_ep_bulkin | 0x80, USBD_MSC_BulkBuf, BulkLen);
00001e  4812              LDR      r0,|L26.104|
000020  2180              MOVS     r1,#0x80
000022  7800              LDRB     r0,[r0,#0]  ; usbd_msc_ep_bulkin
000024  4308              ORRS     r0,r0,r1
000026  490e              LDR      r1,|L26.96|
000028  f7fffffe          BL       USBD_WriteEP
;;;849        USBD_MSC_CSW.dDataResidue -= BulkLen;
00002c  490f              LDR      r1,|L26.108|
00002e  2008              MOVS     r0,#8
000030  180a              ADDS     r2,r1,r0
000032  7813              LDRB     r3,[r2,#0]  ; USBD_MSC_CSW
000034  4618              MOV      r0,r3
000036  7853              LDRB     r3,[r2,#1]  ; USBD_MSC_CSW
000038  021b              LSLS     r3,r3,#8
00003a  4318              ORRS     r0,r0,r3
00003c  7893              LDRB     r3,[r2,#2]  ; USBD_MSC_CSW
00003e  78d2              LDRB     r2,[r2,#3]  ; USBD_MSC_CSW
000040  041b              LSLS     r3,r3,#16
000042  4318              ORRS     r0,r0,r3
000044  0612              LSLS     r2,r2,#24
000046  4310              ORRS     r0,r0,r2
000048  6b22              LDR      r2,[r4,#0x30]  ; BulkLen
00004a  1a80              SUBS     r0,r0,r2
00004c  7208              STRB     r0,[r1,#8]
00004e  0a02              LSRS     r2,r0,#8
000050  724a              STRB     r2,[r1,#9]
000052  0c02              LSRS     r2,r0,#16
000054  728a              STRB     r2,[r1,#0xa]
000056  0e00              LSRS     r0,r0,#24
000058  72c8              STRB     r0,[r1,#0xb]
;;;850        USBD_MSC_CSW.bStatus = CSW_CMD_FAILED;
00005a  2001              MOVS     r0,#1
00005c  7308              STRB     r0,[r1,#0xc]
                  |L26.94|
;;;851    }
00005e  bd10              POP      {r4,pc}
;;;852    
                          ENDP

                  |L26.96|
                          DCD      USBD_MSC_BulkBuf
                  |L26.100|
                          DCD      ||.data||
                  |L26.104|
                          DCD      usbd_msc_ep_bulkin
                  |L26.108|
                          DCD      ||.bss||+0x1f

                          AREA ||i.USBD_MSC_SetCSW||, CODE, READONLY, ALIGN=2

                  USBD_MSC_SetCSW PROC
;;;1017   
;;;1018   void USBD_MSC_SetCSW(void)
000000  b510              PUSH     {r4,lr}
;;;1019   {
;;;1020       USBD_MSC_CSW.dSignature = MSC_CSW_Signature;
000002  480a              LDR      r0,|L27.44|
000004  490a              LDR      r1,|L27.48|
000006  0a02              LSRS     r2,r0,#8
000008  7008              STRB     r0,[r1,#0]
00000a  704a              STRB     r2,[r1,#1]
00000c  0c02              LSRS     r2,r0,#16
00000e  708a              STRB     r2,[r1,#2]
000010  0e00              LSRS     r0,r0,#24
000012  70c8              STRB     r0,[r1,#3]
;;;1021       USBD_WriteEP(usbd_msc_ep_bulkin | 0x80, (U8 *)&USBD_MSC_CSW, sizeof(USBD_MSC_CSW));
000014  4807              LDR      r0,|L27.52|
000016  2180              MOVS     r1,#0x80
000018  7800              LDRB     r0,[r0,#0]  ; usbd_msc_ep_bulkin
00001a  220d              MOVS     r2,#0xd
00001c  4308              ORRS     r0,r0,r1
00001e  4904              LDR      r1,|L27.48|
000020  f7fffffe          BL       USBD_WriteEP
;;;1022       BulkStage = MSC_BS_CSW;
000024  4904              LDR      r1,|L27.56|
000026  2005              MOVS     r0,#5
000028  7008              STRB     r0,[r1,#0]
;;;1023   }
00002a  bd10              POP      {r4,pc}
;;;1024   
                          ENDP

                  |L27.44|
                          DCD      0x53425355
                  |L27.48|
                          DCD      ||.bss||+0x1f
                  |L27.52|
                          DCD      usbd_msc_ep_bulkin
                  |L27.56|
                          DCD      ||.data||

                          AREA ||i.USBD_MSC_SetStallEP||, CODE, READONLY, ALIGN=2

                  USBD_MSC_SetStallEP PROC
;;;79     
;;;80     void USBD_MSC_SetStallEP(U32 EPNum)        /* set EP halt status according stall status */
000000  b510              PUSH     {r4,lr}
;;;81     {
000002  4604              MOV      r4,r0
;;;82         USBD_SetStallEP(EPNum);
000004  f7fffffe          BL       USBD_SetStallEP
;;;83         USBD_EndPointHalt  |= (EPNum & 0x80) ? ((1 << 16) << (EPNum & 0x0F)) : (1 << EPNum);
000008  0620              LSLS     r0,r4,#24
00000a  d505              BPL      |L28.24|
00000c  0721              LSLS     r1,r4,#28
00000e  0f09              LSRS     r1,r1,#28
000010  2001              MOVS     r0,#1
000012  0400              LSLS     r0,r0,#16
000014  4088              LSLS     r0,r0,r1
000016  e001              B        |L28.28|
                  |L28.24|
000018  2001              MOVS     r0,#1
00001a  40a0              LSLS     r0,r0,r4
                  |L28.28|
00001c  4902              LDR      r1,|L28.40|
00001e  680a              LDR      r2,[r1,#0]  ; USBD_EndPointHalt
000020  4310              ORRS     r0,r0,r2
000022  6008              STR      r0,[r1,#0]  ; USBD_EndPointHalt
;;;84     }
000024  bd10              POP      {r4,pc}
;;;85     
                          ENDP

000026  0000              DCW      0x0000
                  |L28.40|
                          DCD      USBD_EndPointHalt

                          AREA ||i.USBD_MSC_StartStopUnit||, CODE, READONLY, ALIGN=2

                  USBD_MSC_StartStopUnit PROC
;;;608    
;;;609    void USBD_MSC_StartStopUnit(void)
000000  b510              PUSH     {r4,lr}
;;;610    {
;;;611        if (!USBD_MSC_CBW.CB[3]) {               /* If power condition modifier is 0 */
000002  480b              LDR      r0,|L29.48|
;;;612            USBD_MSC_MediaReady  = USBD_MSC_CBW.CB[4] & 0x01;   /* Media ready = START bit value */
;;;613            usbd_msc_start_stop(USBD_MSC_MediaReady);
;;;614            USBD_MSC_CSW.bStatus = CSW_CMD_PASSED; /* Start Stop Unit -> pass */
000004  4c0b              LDR      r4,|L29.52|
000006  7c81              LDRB     r1,[r0,#0x12]         ;611  ; USBD_MSC_CBW
000008  2900              CMP      r1,#0                 ;611
00000a  d004              BEQ      |L29.22|
;;;615            USBD_MSC_SetCSW();
;;;616            return;
;;;617        }
;;;618    
;;;619        USBD_MSC_CSW.bStatus = CSW_CMD_FAILED;   /* Start Stop Unit -> fail */
00000c  2001              MOVS     r0,#1
00000e  7320              STRB     r0,[r4,#0xc]
;;;620        USBD_MSC_SetCSW();
000010  f7fffffe          BL       USBD_MSC_SetCSW
;;;621    }
000014  bd10              POP      {r4,pc}
                  |L29.22|
000016  7cc0              LDRB     r0,[r0,#0x13]         ;612  ; USBD_MSC_CBW
000018  4907              LDR      r1,|L29.56|
00001a  07c0              LSLS     r0,r0,#31             ;612
00001c  0fc0              LSRS     r0,r0,#31             ;612
00001e  6048              STR      r0,[r1,#4]            ;613  ; USBD_MSC_MediaReady
000020  f7fffffe          BL       usbd_msc_start_stop
000024  2000              MOVS     r0,#0                 ;614
000026  7320              STRB     r0,[r4,#0xc]          ;614
000028  f7fffffe          BL       USBD_MSC_SetCSW
00002c  bd10              POP      {r4,pc}
;;;622    
                          ENDP

00002e  0000              DCW      0x0000
                  |L29.48|
                          DCD      ||.bss||
                  |L29.52|
                          DCD      ||.bss||+0x1f
                  |L29.56|
                          DCD      ||.data||

                          AREA ||i.USBD_MSC_SynchronizeCache||, CODE, READONLY, ALIGN=2

                  USBD_MSC_SynchronizeCache PROC
;;;791    
;;;792    void USBD_MSC_SynchronizeCache(void)
000000  b510              PUSH     {r4,lr}
;;;793    {
;;;794        /* Synchronize check always passes as we always write data dirrectly
;;;795           so cache is always synchronized                                          */
;;;796        USBD_MSC_CSW.bStatus = CSW_CMD_PASSED;
000002  4903              LDR      r1,|L30.16|
000004  2000              MOVS     r0,#0
000006  7308              STRB     r0,[r1,#0xc]
;;;797        USBD_MSC_SetCSW();
000008  f7fffffe          BL       USBD_MSC_SetCSW
;;;798    }
00000c  bd10              POP      {r4,pc}
;;;799    
                          ENDP

00000e  0000              DCW      0x0000
                  |L30.16|
                          DCD      ||.bss||+0x1f

                          AREA ||i.USBD_MSC_TestUnitReady||, CODE, READONLY, ALIGN=2

                  USBD_MSC_TestUnitReady PROC
;;;487    
;;;488    void USBD_MSC_TestUnitReady(void)
000000  4b15              LDR      r3,|L31.88|
;;;489    {
000002  b510              PUSH     {r4,lr}
;;;490        if (USBD_MSC_CBW.dDataLength != 0) {
000004  2008              MOVS     r0,#8
000006  1819              ADDS     r1,r3,r0
000008  780a              LDRB     r2,[r1,#0]  ; USBD_MSC_CBW
;;;491            if ((USBD_MSC_CBW.bmFlags & 0x80) != 0) {
;;;492                USBD_MSC_SetStallEP(usbd_msc_ep_bulkin | 0x80);
;;;493            } else {
;;;494                USBD_MSC_SetStallEP(usbd_msc_ep_bulkout);
;;;495            }
;;;496    
;;;497            USBD_MSC_CSW.bStatus = CSW_CMD_FAILED;
00000a  4c14              LDR      r4,|L31.92|
00000c  4610              MOV      r0,r2                 ;490
00000e  784a              LDRB     r2,[r1,#1]            ;490  ; USBD_MSC_CBW
000010  0212              LSLS     r2,r2,#8              ;490
000012  4310              ORRS     r0,r0,r2              ;490
000014  788a              LDRB     r2,[r1,#2]            ;490  ; USBD_MSC_CBW
000016  78c9              LDRB     r1,[r1,#3]            ;490  ; USBD_MSC_CBW
000018  0412              LSLS     r2,r2,#16             ;490
00001a  4310              ORRS     r0,r0,r2              ;490
00001c  0609              LSLS     r1,r1,#24             ;490
00001e  4308              ORRS     r0,r0,r1              ;490
000020  d010              BEQ      |L31.68|
000022  7b18              LDRB     r0,[r3,#0xc]          ;491  ; USBD_MSC_CBW
000024  0600              LSLS     r0,r0,#24             ;491
000026  d504              BPL      |L31.50|
000028  480d              LDR      r0,|L31.96|
00002a  2180              MOVS     r1,#0x80              ;492
00002c  7800              LDRB     r0,[r0,#0]            ;492  ; usbd_msc_ep_bulkin
00002e  4308              ORRS     r0,r0,r1              ;492
000030  e001              B        |L31.54|
                  |L31.50|
000032  480c              LDR      r0,|L31.100|
000034  7800              LDRB     r0,[r0,#0]            ;494  ; usbd_msc_ep_bulkout
                  |L31.54|
000036  f7fffffe          BL       USBD_MSC_SetStallEP
00003a  2001              MOVS     r0,#1
00003c  7320              STRB     r0,[r4,#0xc]
;;;498            USBD_MSC_SetCSW();
00003e  f7fffffe          BL       USBD_MSC_SetCSW
                  |L31.66|
;;;499            return;
;;;500        }
;;;501    
;;;502        if (!USBD_MSC_CheckMedia()) {
;;;503            return;
;;;504        }
;;;505    
;;;506        USBD_MSC_CSW.bStatus = CSW_CMD_PASSED;
;;;507        USBD_MSC_SetCSW();
;;;508    }
000042  bd10              POP      {r4,pc}
                  |L31.68|
000044  f7fffffe          BL       USBD_MSC_CheckMedia
000048  2800              CMP      r0,#0                 ;502
00004a  d0fa              BEQ      |L31.66|
00004c  2000              MOVS     r0,#0                 ;506
00004e  7320              STRB     r0,[r4,#0xc]          ;506
000050  f7fffffe          BL       USBD_MSC_SetCSW
000054  bd10              POP      {r4,pc}
;;;509    
                          ENDP

000056  0000              DCW      0x0000
                  |L31.88|
                          DCD      ||.bss||
                  |L31.92|
                          DCD      ||.bss||+0x1f
                  |L31.96|
                          DCD      usbd_msc_ep_bulkin
                  |L31.100|
                          DCD      usbd_msc_ep_bulkout

                          AREA ||i.usbd_msc_init||, CODE, READONLY, ALIGN=1

                  usbd_msc_init PROC
;;;53     /* Dummy Weak Functions that need to be provided by user */
;;;54     __weak void usbd_msc_init()
000000  4770              BX       lr
;;;55     {
;;;56     
;;;57     }
;;;58     __weak void usbd_msc_read_sect(U32 block, U8 *buf, U32 num_of_blocks, U8 lun)
                          ENDP


                          AREA ||i.usbd_msc_read_sect||, CODE, READONLY, ALIGN=1

                  usbd_msc_read_sect PROC
;;;57     }
;;;58     __weak void usbd_msc_read_sect(U32 block, U8 *buf, U32 num_of_blocks, U8 lun)
000000  4770              BX       lr
;;;59     {
;;;60     
;;;61     }
;;;62     __weak void usbd_msc_write_sect(U32 block, U8 *buf, U32 num_of_blocks, U8 lun)
                          ENDP


                          AREA ||i.usbd_msc_start_stop||, CODE, READONLY, ALIGN=1

                  usbd_msc_start_stop PROC
;;;65     }
;;;66     __weak void usbd_msc_start_stop(BOOL start)
000000  4770              BX       lr
;;;67     {
;;;68     
;;;69     }
;;;70     
                          ENDP


                          AREA ||i.usbd_msc_write_sect||, CODE, READONLY, ALIGN=1

                  usbd_msc_write_sect PROC
;;;61     }
;;;62     __weak void usbd_msc_write_sect(U32 block, U8 *buf, U32 num_of_blocks, U8 lun)
000000  4770              BX       lr
;;;63     {
;;;64     
;;;65     }
;;;66     __weak void usbd_msc_start_stop(BOOL start)
                          ENDP


                          AREA ||.bss||, DATA, NOINIT, ALIGN=0

                  USBD_MSC_CBW
                          %        31
                  USBD_MSC_CSW
                          %        13

                          AREA ||.data||, DATA, ALIGN=2

                  BulkStage
000000  00000000          DCB      0x00,0x00,0x00,0x00
                  USBD_MSC_MediaReady
                          DCD      0x00000000
                  USBD_MSC_ReadOnly
                          DCD      0x00000000
                  USBD_MSC_MediaReadyEx
                          DCD      0x00000000
                  USBD_MSC_BlockSize
                          DCD      0x00000000
                  USBD_MSC_BlockGroup
                          DCD      0x00000000
                  USBD_MSC_BlockCount
                          DCD      0x00000000
                  USBD_MSC_BlockBuf
                          DCD      0x00000000
                  MemOK
                          DCD      0x00000000
                  Block
                          DCD      0x00000000
                  Offset
                          DCD      0x00000000
                  Length
                          DCD      0x00000000
                  BulkLen
                          DCD      0x00000000

                          AREA ||area_number.40||, DATA, ALIGN=2

                          EXPORTAS ||area_number.40||, ||.data||
                  USBD_MSC_MemorySize
                          DCD      0x00000000
